ccopy_reg
_reconstructor
p0
(csklearn.neighbors.regression
KNeighborsRegressor
p1
c__builtin__
object
p2
Ntp3
Rp4
(dp5
S'n_neighbors'
p6
I3
sS'algorithm'
p7
S'auto'
p8
sS'p'
p9
I2
sS'radius'
p10
NsS'leaf_size'
p11
I30
sS'_fit_method'
p12
NsS'weights'
p13
S'uniform'
p14
sS'_tree'
p15
NsS'warn_on_equidistant'
p16
I01
sS'_fit_X'
p17
Nsb.