ccopy_reg
_reconstructor
p0
(csklearn.grid_search
GridSearchCV
p1
c__builtin__
object
p2
Ntp3
Rp4
(dp5
S'scoring'
p6
S'average_precision'
p7
sS'n_jobs'
p8
I1
sS'verbose'
p9
I0
sS'fit_params'
p10
(dp11
sS'refit'
p12
I01
sS'iid'
p13
I01
sS'estimator'
p14
g0
(csklearn.neighbors.regression
KNeighborsRegressor
p15
g2
Ntp16
Rp17
(dp18
S'n_neighbors'
p19
I5
sg8
I1
sS'algorithm'
p20
S'auto'
p21
sS'metric'
p22
S'minkowski'
p23
sS'metric_params'
p24
NsS'p'
p25
I2
sS'radius'
p26
NsS'leaf_size'
p27
I30
sS'_fit_method'
p28
NsS'weights'
p29
S'uniform'
p30
sS'_tree'
p31
NsS'_fit_X'
p32
NsbsS'error_score'
p33
S'raise'
p34
sS'pre_dispatch'
p35
S'2*n_jobs'
p36
sS'param_grid'
p37
(dp38
g19
(lp39
I1
aI2
aI3
aI4
aI5
aI6
aI7
aI8
aI9
aI10
asg29
(lp40
g30
aS'distance'
p41
asg20
(lp42
g21
aS'ball_tree'
p43
aS'kd_tree'
p44
aS'brute'
p45
assS'cv'
p46
Nsb.