ccopy_reg
_reconstructor
p0
(csklearn.grid_search
GridSearchCV
p1
c__builtin__
object
p2
Ntp3
Rp4
(dp5
S'scoring'
p6
NsS'n_jobs'
p7
I1
sS'verbose'
p8
I0
sS'fit_params'
p9
(dp10
sS'refit'
p11
I01
sS'iid'
p12
I01
sS'estimator'
p13
g0
(csklearn.neighbors.regression
KNeighborsRegressor
p14
g2
Ntp15
Rp16
(dp17
S'n_neighbors'
p18
I5
sg7
I1
sS'algorithm'
p19
S'auto'
p20
sS'metric'
p21
S'minkowski'
p22
sS'metric_params'
p23
NsS'p'
p24
I2
sS'radius'
p25
NsS'leaf_size'
p26
I30
sS'_fit_method'
p27
NsS'weights'
p28
S'uniform'
p29
sS'_tree'
p30
NsS'_fit_X'
p31
NsbsS'error_score'
p32
S'raise'
p33
sS'pre_dispatch'
p34
S'2*n_jobs'
p35
sS'param_grid'
p36
(dp37
g18
(lp38
I1
aI2
aI3
aI4
aI5
aI6
aI7
aI8
aI9
aI10
asg28
(lp39
g29
aS'distance'
p40
asg19
(lp41
g20
aS'ball_tree'
p42
aS'kd_tree'
p43
aS'brute'
p44
assS'cv'
p45
Nsb.