ccopy_reg
_reconstructor
p0
(csklearn.pipeline
Pipeline
p1
c__builtin__
object
p2
Ntp3
Rp4
(dp5
S'steps'
p6
(lp7
(S'minmaxer'
p8
g0
(csklearn.preprocessing
MinMaxScaler
p9
g2
Ntp10
Rp11
(dp12
S'copy'
p13
I01
sS'feature_range'
p14
(I0
I1
tp15
sbtp16
a(S'clf'
p17
g0
(csklearn.tree.tree
DecisionTreeClassifier
p18
g2
Ntp19
Rp20
(dp21
S'find_split_'
p22
I1
sS'feature_importances_'
p23
NsS'tree_'
p24
NsS'n_features_'
p25
NsS'n_outputs_'
p26
NsS'min_density'
p27
F0.1
sS'compute_importances'
p28
I00
sS'classes_'
p29
NsS'min_samples_leaf'
p30
I1
sS'max_features'
p31
NsS'random_state'
p32
NsS'criterion'
p33
S'gini'
p34
sS'min_samples_split'
p35
I2
sS'max_depth'
p36
NsS'n_classes_'
p37
Nsbtp38
asS'named_steps'
p39
(dp40
g17
g20
sg8
g11
ssb.