(dp0
S'METTS MARK'
p1
(dp2
S'to_messages'
p3
I807
sS'deferral_payments'
p4
S'NaN'
p5
sS'expenses'
p6
I94299
sS'poi'
p7
I00
sS'deferred_income'
p8
g5
sS'email_address'
p9
S'mark.metts@enron.com'
p10
sS'long_term_incentive'
p11
g5
sS'restricted_stock_deferred'
p12
g5
sS'shared_receipt_with_poi'
p13
I702
sS'loan_advances'
p14
g5
sS'from_messages'
p15
I29
sS'other'
p16
I1740
sS'director_fees'
p17
g5
sS'eso_deferred_income'
p18
cnumpy.core.multiarray
_reconstruct
p19
(cnumpy
ndarray
p20
(I0
tp21
S'b'
p22
tp23
Rp24
(I1
(I1
tp25
cnumpy
dtype
p26
(S'f8'
p27
I0
I1
tp28
Rp29
(I3
S'<'
p30
NNNI-1
I-1
I0
tp31
bI00
S'\x00\x00\x00\x00\x00\x00\x00\x00'
p32
tp33
bsS'bonus'
p34
I600000
sS'total_stock_value'
p35
I585062
sS'from_poi_to_this_person'
p36
I38
sS'from_this_person_to_poi'
p37
I1
sS'restricted_stock'
p38
I585062
sS'salary'
p39
I365788
sS'total_payments'
p40
I1061827
sS'exercised_stock_options'
p41
g5
ssS'BAXTER JOHN C'
p42
(dp43
g3
g5
sg4
I1295738
sg6
I11200
sg7
I00
sg8
I-1386055
sg9
g5
sg11
I1586055
sg12
g5
sg13
g5
sg14
g5
sg15
g5
sg16
I2660303
sg17
g5
sg18
g19
(g20
(I0
tp44
g22
tp45
Rp46
(I1
(I1
tp47
g29
I00
S'\x9c\xaar\xf3]2\xe0?'
p48
tp49
bsg34
I1200000
sg35
I10623258
sg36
g5
sg37
g5
sg38
I3942714
sg39
I267102
sg40
I5634343
sg41
I6680544
ssS'ELLIOTT STEVEN'
p50
(dp51
g3
g5
sg4
g5
sg6
I78552
sg7
I00
sg8
I-400729
sg9
S'steven.elliott@enron.com'
p52
sg11
g5
sg12
g5
sg13
g5
sg14
g5
sg15
g5
sg16
I12961
sg17
g5
sg18
g19
(g20
(I0
tp53
g22
tp54
Rp55
(I1
(I1
tp56
g29
I00
S'\xd55\x88\xf3O\xea\xe3?'
p57
tp58
bsg34
I350000
sg35
I6678735
sg36
g5
sg37
g5
sg38
I1788391
sg39
I170941
sg40
I211725
sg41
I4890344
ssS'CORDES WILLIAM R'
p59
(dp60
g3
I764
sg4
g5
sg6
g5
sg7
I00
sg8
g5
sg9
S'bill.cordes@enron.com'
p61
sg11
g5
sg12
g5
sg13
I58
sg14
g5
sg15
I12
sg16
g5
sg17
g5
sg18
g19
(g20
(I0
tp62
g22
tp63
Rp64
(I1
(I1
tp65
g29
I00
S'6\xc8M\x11\x9a\xf7\xdc?'
p66
tp67
bsg34
g5
sg35
I1038185
sg36
I10
sg37
I0
sg38
I386335
sg39
g5
sg40
g5
sg41
I651850
ssS'HANNON KEVIN P'
p68
(dp69
g3
I1045
sg4
g5
sg6
I34039
sg7
I01
sg8
I-3117011
sg9
S'kevin.hannon@enron.com'
p70
sg11
I1617011
sg12
g5
sg13
I1035
sg14
g5
sg15
I32
sg16
I11350
sg17
g5
sg18
g19
(g20
(I0
tp71
g22
tp72
Rp73
(I1
(I1
tp74
g29
I00
S'\xd4\xb3\xeb\x0b\xf0\xfb\xca?'
p75
tp76
bsg34
I1500000
sg35
I6391065
sg36
I32
sg37
I21
sg38
I853064
sg39
I243293
sg40
I288682
sg41
I5538001
ssS'MORDAUNT KRISTINA M'
p77
(dp78
g3
g5
sg4
g5
sg6
I35018
sg7
I00
sg8
g5
sg9
S'kristina.mordaunt@enron.com'
p79
sg11
g5
sg12
g5
sg13
g5
sg14
g5
sg15
g5
sg16
I1411
sg17
g5
sg18
g19
(g20
(I0
tp80
g22
tp81
Rp82
(I1
(I1
tp83
g29
I00
S'\x00\x00\x00\x00\x00\x00\x00\x00'
p84
tp85
bsg34
I325000
sg35
I208510
sg36
g5
sg37
g5
sg38
I208510
sg39
I267093
sg40
I628522
sg41
g5
ssS'MEYER ROCKFORD G'
p86
(dp87
g3
I232
sg4
I1848227
sg6
g5
sg7
I00
sg8
g5
sg9
S'rockford.meyer@enron.com'
p88
sg11
g5
sg12
g5
sg13
I22
sg14
g5
sg15
I28
sg16
g5
sg17
g5
sg18
g19
(g20
(I0
tp89
g22
tp90
Rp91
(I1
(I1
tp92
g29
I00
S'\xa6\x93\xcdQ\x91e\xdb?'
p93
tp94
bsg34
g5
sg35
I955873
sg36
I0
sg37
I0
sg38
I462384
sg39
g5
sg40
I1848227
sg41
I493489
ssS'MCMAHON JEFFREY'
p95
(dp96
g3
I2355
sg4
g5
sg6
I137108
sg7
I00
sg8
g5
sg9
S'jeffrey.mcmahon@enron.com'
p97
sg11
I694862
sg12
g5
sg13
I2228
sg14
g5
sg15
I48
sg16
I297353
sg17
g5
sg18
g19
(g20
(I0
tp98
g22
tp99
Rp100
(I1
(I1
tp101
g29
I00
S'N\nZ\xe6D\x19\xe0?'
p102
tp103
bsg34
I2600000
sg35
I1662855
sg36
I58
sg37
I26
sg38
I558801
sg39
I370448
sg40
I4099771
sg41
I1104054
ssS'HAEDICKE MARK E'
p104
(dp105
g3
I4009
sg4
I2157527
sg6
I76169
sg7
I00
sg8
I-934484
sg9
S'mark.haedicke@enron.com'
p106
sg11
I983346
sg12
I-329825
sg13
I1847
sg14
g5
sg15
I1941
sg16
I52382
sg17
g5
sg18
g19
(g20
(I0
tp107
g22
tp108
Rp109
(I1
(I1
tp110
g29
I00
S'\xd3\x17\xf5\xbb+L\xd6?'
p111
tp112
bsg34
I1150000
sg35
I803094
sg36
I180
sg37
I61
sg38
I524169
sg39
I374125
sg40
I3859065
sg41
I608750
ssS'PIPER GREGORY F'
p113
(dp114
g3
I1238
sg4
I1130036
sg6
I43057
sg7
I00
sg8
I-33333
sg9
S'greg.piper@enron.com'
p115
sg11
g5
sg12
I-409554
sg13
I742
sg14
g5
sg15
I222
sg16
I778
sg17
g5
sg18
g19
(g20
(I0
tp116
g22
tp117
Rp118
(I1
(I1
tp119
g29
I00
S'Me\xc0\xae\x12\x88\xde?'
p120
tp121
bsg34
I400000
sg35
I880290
sg36
I61
sg37
I48
sg38
I409554
sg39
I197091
sg40
I1737629
sg41
I880290
ssS'HUMPHREY GENE E'
p122
(dp123
g3
I128
sg4
I2964506
sg6
I4994
sg7
I00
sg8
g5
sg9
S'gene.humphrey@enron.com'
p124
sg11
g5
sg12
g5
sg13
I119
sg14
g5
sg15
I17
sg16
g5
sg17
g5
sg18
g19
(g20
(I0
tp125
g22
tp126
Rp127
(I1
(I1
tp128
g29
I00
S'}\xd00`\xbb\xa5\xe2?'
p129
tp130
bsg34
g5
sg35
I2282768
sg36
I10
sg37
I17
sg38
g5
sg39
I130724
sg40
I3100224
sg41
I2282768
ssS'NOLES JAMES L'
p131
(dp132
g3
g5
sg4
I774401
sg6
g5
sg7
I00
sg8
g5
sg9
g5
sg11
g5
sg12
I-94556
sg13
g5
sg14
g5
sg15
g5
sg16
g5
sg17
g5
sg18
g19
(g20
(I0
tp133
g22
tp134
Rp135
(I1
(I1
tp136
g29
I00
S'\x00\x00\x00\x00\x00\x00\x00\x00'
p137
tp138
bsg34
g5
sg35
I368705
sg36
g5
sg37
g5
sg38
I463261
sg39
g5
sg40
I774401
sg41
g5
ssS'BLACHMAN JEREMY M'
p139
(dp140
g3
I2475
sg4
g5
sg6
I84208
sg7
I00
sg8
g5
sg9
S'jeremy.blachman@enron.com'
p141
sg11
I831809
sg12
g5
sg13
I2326
sg14
g5
sg15
I14
sg16
I272
sg17
g5
sg18
g19
(g20
(I0
tp142
g22
tp143
Rp144
(I1
(I1
tp145
g29
I00
S'R\x12\xf3\x10\xfb\xe9\xdd?'
p146
tp147
bsg34
I850000
sg35
I954354
sg36
I25
sg37
I2
sg38
I189041
sg39
I248546
sg40
I2014835
sg41
I765313
ssS'SUNDE MARTIN'
p148
(dp149
g3
I2647
sg4
g5
sg6
g5
sg7
I00
sg8
g5
sg9
S'marty.sunde@enron.com'
p150
sg11
I476451
sg12
g5
sg13
I2565
sg14
g5
sg15
I38
sg16
I111122
sg17
g5
sg18
g19
(g20
(I0
tp151
g22
tp152
Rp153
(I1
(I1
tp154
g29
I00
S'\x00\x00\x00\x00\x00\x00\x00\x00'
p155
tp156
bsg34
I700000
sg35
I698920
sg36
I37
sg37
I13
sg38
I698920
sg39
I257486
sg40
I1545059
sg41
g5
ssS'GIBBS DANA R'
p157
(dp158
g3
I169
sg4
I504610
sg6
g5
sg7
I00
sg8
g5
sg9
S'dana.gibbs@enron.com'
p159
sg11
I461912
sg12
g5
sg13
I23
sg14
g5
sg15
I12
sg16
g5
sg17
g5
sg18
g19
(g20
(I0
tp160
g22
tp161
Rp162
(I1
(I1
tp163
g29
I00
S'\x8c\xcd\x89\xea\xdd\x89\xe2?'
p164
tp165
bsg34
g5
sg35
I2218275
sg36
I0
sg37
I0
sg38
g5
sg39
g5
sg40
I966522
sg41
I2218275
ssS'LOWRY CHARLES P'
p166
(dp167
g3
g5
sg4
g5
sg6
g5
sg7
I00
sg8
g5
sg9
g5
sg11
g5
sg12
I-153686
sg13
g5
sg14
g5
sg15
g5
sg16
g5
sg17
g5
sg18
g19
(g20
(I0
tp168
g22
tp169
Rp170
(I1
(I1
tp171
g29
I00
S'\xdcFD\xeb\x94\xe4\xd9?'
p172
tp173
bsg34
g5
sg35
I372205
sg36
g5
sg37
g5
sg38
I153686
sg39
g5
sg40
g5
sg41
I372205
ssS'COLWELL WESLEY'
p174
(dp175
g3
I1758
sg4
I27610
sg6
I16514
sg7
I01
sg8
I-144062
sg9
S'wes.colwell@enron.com'
p176
sg11
g5
sg12
g5
sg13
I1132
sg14
g5
sg15
I40
sg16
I101740
sg17
g5
sg18
g19
(g20
(I0
tp177
g22
tp178
Rp179
(I1
(I1
tp180
g29
I00
S'\x00\x00\x00\x00\x00\x00\x00\x00'
p181
tp182
bsg34
I1200000
sg35
I698242
sg36
I240
sg37
I11
sg38
I698242
sg39
I288542
sg40
I1490344
sg41
g5
ssS'MULLER MARK S'
p183
(dp184
g3
I136
sg4
I842924
sg6
g5
sg7
I00
sg8
I-719000
sg9
S's..muller@enron.com'
p185
sg11
I1725545
sg12
g5
sg13
I114
sg14
g5
sg15
I16
sg16
I947
sg17
g5
sg18
g19
(g20
(I0
tp186
g22
tp187
Rp188
(I1
(I1
tp189
g29
I00
S'&\xb5\xca\x1d\x82\x90\xda?'
p190
tp191
bsg34
I1100000
sg35
I1416848
sg36
I12
sg37
I0
sg38
I360528
sg39
I251654
sg40
I3202070
sg41
I1056320
ssS'JACKSON CHARLENE R'
p192
(dp193
g3
I258
sg4
g5
sg6
I10181
sg7
I00
sg8
g5
sg9
S'charlene.jackson@enron.com'
p194
sg11
g5
sg12
g5
sg13
I117
sg14
g5
sg15
I56
sg16
I2435
sg17
g5
sg18
g19
(g20
(I0
tp195
g22
tp196
Rp197
(I1
(I1
tp198
g29
I00
S'\xc6\xe3\xd5\xca\xcc\x83\xd6?'
p199
tp200
bsg34
I250000
sg35
I725735
sg36
I25
sg37
I19
sg38
I540672
sg39
I288558
sg40
I551174
sg41
I185063
ssS'WESTFAHL RICHARD K'
p201
(dp202
g3
g5
sg4
g5
sg6
I51870
sg7
I00
sg8
I-10800
sg9
S'dick.westfahl@enron.com'
p203
sg11
I256191
sg12
g5
sg13
g5
sg14
g5
sg15
g5
sg16
I401130
sg17
g5
sg18
g19
(g20
(I0
tp204
g22
tp205
Rp206
(I1
(I1
tp207
g29
I00
S'\x00\x00\x00\x00\x00\x00\x00\x00'
p208
tp209
bsg34
g5
sg35
I384930
sg36
g5
sg37
g5
sg38
I384930
sg39
I63744
sg40
I762135
sg41
g5
ssS'WALTERS GARETH W'
p210
(dp211
g3
g5
sg4
I53625
sg6
I33785
sg7
I00
sg8
g5
sg9
g5
sg11
g5
sg12
g5
sg13
g5
sg14
g5
sg15
g5
sg16
g5
sg17
g5
sg18
g19
(g20
(I0
tp212
g22
tp213
Rp214
(I1
(I1
tp215
g29
I00
S'8N\xc3\xd7\xd9\xc0\xdf?'
p216
tp217
bsg34
g5
sg35
I1030329
sg36
g5
sg37
g5
sg38
g5
sg39
g5
sg40
I87410
sg41
I1030329
ssS'WALLS JR ROBERT H'
p218
(dp219
g3
I671
sg4
g5
sg6
I50936
sg7
I00
sg8
g5
sg9
S'rob.walls@enron.com'
p220
sg11
I540751
sg12
g5
sg13
I215
sg14
g5
sg15
I146
sg16
I2
sg17
g5
sg18
g19
(g20
(I0
tp221
g22
tp222
Rp223
(I1
(I1
tp224
g29
I00
S'\x8fR\xa150U\xe5?'
p225
tp226
bsg34
I850000
sg35
I5898997
sg36
I17
sg37
I0
sg38
I1552453
sg39
I357091
sg40
I1798780
sg41
I4346544
ssS'KITCHEN LOUISE'
p227
(dp228
g3
I8305
sg4
g5
sg6
I5774
sg7
I00
sg8
g5
sg9
S'louise.kitchen@enron.com'
p229
sg11
g5
sg12
g5
sg13
I3669
sg14
g5
sg15
I1728
sg16
I93925
sg17
g5
sg18
g19
(g20
(I0
tp230
g22
tp231
Rp232
(I1
(I1
tp233
g29
I00
S'\xd2i\xc8\xf3Q\x16\xd3?'
p234
tp235
bsg34
I3100000
sg35
I547143
sg36
I251
sg37
I194
sg38
I466101
sg39
I271442
sg40
I3471141
sg41
I81042
ssS'CHAN RONNIE'
p236
(dp237
g3
g5
sg4
g5
sg6
g5
sg7
I00
sg8
I-98784
sg9
g5
sg11
g5
sg12
I-32460
sg13
g5
sg14
g5
sg15
g5
sg16
g5
sg17
I98784
sg18
g19
(g20
(I0
tp238
g22
tp239
Rp240
(I1
(I1
tp241
g29
I00
S'\x00\x00\x00\x00\x00\x00\x00\x00'
p242
tp243
bsg34
g5
sg35
g5
sg36
g5
sg37
g5
sg38
I32460
sg39
g5
sg40
g5
sg41
g5
ssS'BELFER ROBERT'
p244
(dp245
g3
g5
sg4
I-102500
sg6
g5
sg7
I00
sg8
g5
sg9
g5
sg11
g5
sg12
I44093
sg13
g5
sg14
g5
sg15
g5
sg16
g5
sg17
I3285
sg18
g19
(g20
(I0
tp246
g22
tp247
Rp248
(I1
(I1
tp249
g29
I00
S'\x90\x85\xb1zA\x1b\xc4?'
p250
tp251
bsg34
g5
sg35
I-44093
sg36
g5
sg37
g5
sg38
g5
sg39
g5
sg40
I102500
sg41
I3285
ssS'SHANKMAN JEFFREY A'
p252
(dp253
g3
I3221
sg4
g5
sg6
I178979
sg7
I00
sg8
g5
sg9
S'jeffrey.shankman@enron.com'
p254
sg11
I554422
sg12
g5
sg13
I1730
sg14
g5
sg15
I2681
sg16
I1191
sg17
g5
sg18
g19
(g20
(I0
tp255
g22
tp256
Rp257
(I1
(I1
tp258
g29
I00
S'X\xeb\x08\x87\xe2\xfc\xe0?'
p259
tp260
bsg34
I2000000
sg35
I2072035
sg36
I94
sg37
I83
sg38
I630137
sg39
I304110
sg40
I3038702
sg41
I1441898
ssS'WODRASKA JOHN'
p261
(dp262
g3
g5
sg4
g5
sg6
g5
sg7
I00
sg8
g5
sg9
S'john.wodraska@enron.com'
p263
sg11
g5
sg12
g5
sg13
g5
sg14
g5
sg15
g5
sg16
I189583
sg17
g5
sg18
g19
(g20
(I0
tp264
g22
tp265
Rp266
(I1
(I1
tp267
g29
I00
S'\x00\x00\x00\x00\x00\x00\x00\x00'
p268
tp269
bsg34
g5
sg35
g5
sg36
g5
sg37
g5
sg38
g5
sg39
g5
sg40
I189583
sg41
g5
ssS'BERGSIEKER RICHARD P'
p270
(dp271
g3
I383
sg4
g5
sg6
I59175
sg7
I00
sg8
I-485813
sg9
S'rick.bergsieker@enron.com'
p272
sg11
I180250
sg12
g5
sg13
I233
sg14
g5
sg15
I59
sg16
I427316
sg17
g5
sg18
g19
(g20
(I0
tp273
g22
tp274
Rp275
(I1
(I1
tp276
g29
I00
S'\x00\x00\x00\x00\x00\x00\x00\x00'
p277
tp278
bsg34
I250000
sg35
I659249
sg36
I4
sg37
I0
sg38
I659249
sg39
I187922
sg40
I618850
sg41
g5
ssS'URQUHART JOHN A'
p279
(dp280
g3
g5
sg4
g5
sg6
I228656
sg7
I00
sg8
I-36666
sg9
g5
sg11
g5
sg12
g5
sg13
g5
sg14
g5
sg15
g5
sg16
g5
sg17
I36666
sg18
g19
(g20
(I0
tp281
g22
tp282
Rp283
(I1
(I1
tp284
g29
I00
S'\x00\x00\x00\x00\x00\x00\x00\x00'
p285
tp286
bsg34
g5
sg35
g5
sg36
g5
sg37
g5
sg38
g5
sg39
g5
sg40
I228656
sg41
g5
ssS'BIBI PHILIPPE A'
p287
(dp288
g3
I1607
sg4
g5
sg6
I38559
sg7
I00
sg8
g5
sg9
S'philippe.bibi@enron.com'
p289
sg11
I369721
sg12
g5
sg13
I1336
sg14
g5
sg15
I40
sg16
I425688
sg17
g5
sg18
g19
(g20
(I0
tp290
g22
tp291
Rp292
(I1
(I1
tp293
g29
I00
S'\xd7N\xa6\x03L\x0b\xe1?'
p294
tp295
bsg34
I1000000
sg35
I1843816
sg36
I23
sg37
I8
sg38
I378082
sg39
I213625
sg40
I2047593
sg41
I1465734
ssS'RIEKER PAULA H'
p296
(dp297
g3
I1328
sg4
I214678
sg6
I33271
sg7
I01
sg8
I-100000
sg9
S'paula.rieker@enron.com'
p298
sg11
g5
sg12
g5
sg13
I1258
sg14
g5
sg15
I82
sg16
I1950
sg17
g5
sg18
g19
(g20
(I0
tp299
g22
tp300
Rp301
(I1
(I1
tp302
g29
I00
S'\x8b\xe0H\xef\x00\x07\xe1?'
p303
tp304
bsg34
I700000
sg35
I1918887
sg36
I35
sg37
I48
sg38
I283649
sg39
I249201
sg40
I1099100
sg41
I1635238
ssS'WHALEY DAVID A'
p305
(dp306
g3
g5
sg4
g5
sg6
g5
sg7
I00
sg8
g5
sg9
g5
sg11
g5
sg12
g5
sg13
g5
sg14
g5
sg15
g5
sg16
g5
sg17
g5
sg18
g19
(g20
(I0
tp307
g22
tp308
Rp309
(I1
(I1
tp310
g29
I00
S'B\xd3\xeb\xe4\xfe\xda\xd3?'
p311
tp312
bsg34
g5
sg35
I98718
sg36
g5
sg37
g5
sg38
g5
sg39
g5
sg40
g5
sg41
I98718
ssS'BECK SALLY W'
p313
(dp314
g3
I7315
sg4
g5
sg6
I37172
sg7
I00
sg8
g5
sg9
S'sally.beck@enron.com'
p315
sg11
g5
sg12
g5
sg13
I2639
sg14
g5
sg15
I4343
sg16
I566
sg17
g5
sg18
g19
(g20
(I0
tp316
g22
tp317
Rp318
(I1
(I1
tp319
g29
I00
S'\x00\x00\x00\x00\x00\x00\x00\x00'
p320
tp321
bsg34
I700000
sg35
I126027
sg36
I144
sg37
I386
sg38
I126027
sg39
I231330
sg40
I969068
sg41
g5
ssS'HAUG DAVID L'
p322
(dp323
g3
I573
sg4
g5
sg6
I475
sg7
I00
sg8
g5
sg9
S'david.haug@enron.com'
p324
sg11
g5
sg12
g5
sg13
I471
sg14
g5
sg15
I19
sg16
g5
sg17
g5
sg18
g19
(g20
(I0
tp325
g22
tp326
Rp327
(I1
(I1
tp328
g29
I00
S'\x00\x00\x00\x00\x00\x00\x00\x00'
p329
tp330
bsg34
g5
sg35
I2217299
sg36
I4
sg37
I7
sg38
I2217299
sg39
g5
sg40
I475
sg41
g5
ssS'ECHOLS JOHN B'
p331
(dp332
g3
g5
sg4
g5
sg6
I21530
sg7
I00
sg8
g5
sg9
S'john.echols@enron.com'
p333
sg11
I2234774
sg12
g5
sg13
g5
sg14
g5
sg15
g5
sg16
I53775
sg17
g5
sg18
g19
(g20
(I0
tp334
g22
tp335
Rp336
(I1
(I1
tp337
g29
I00
S'\x95\x06\xac\x00\xfc\x80\xdc?'
p338
tp339
bsg34
I200000
sg35
I1008941
sg36
g5
sg37
g5
sg38
I407503
sg39
I182245
sg40
I2692324
sg41
I601438
ssS'MENDELSOHN JOHN'
p340
(dp341
g3
g5
sg4
g5
sg6
I148
sg7
I00
sg8
I-103750
sg9
g5
sg11
g5
sg12
g5
sg13
g5
sg14
g5
sg15
g5
sg16
g5
sg17
I103750
sg18
g19
(g20
(I0
tp342
g22
tp343
Rp344
(I1
(I1
tp345
g29
I00
S'\x00\x00\x00\x00\x00\x00\x00\x00'
p346
tp347
bsg34
g5
sg35
g5
sg36
g5
sg37
g5
sg38
g5
sg39
g5
sg40
I148
sg41
g5
ssS'HICKERSON GARY J'
p348
(dp349
g3
I1320
sg4
g5
sg6
I98849
sg7
I00
sg8
g5
sg9
S'gary.hickerson@enron.com'
p350
sg11
I69223
sg12
g5
sg13
I900
sg14
g5
sg15
I27
sg16
I1936
sg17
g5
sg18
g19
(g20
(I0
tp351
g22
tp352
Rp353
(I1
(I1
tp354
g29
I00
S'\x00\x00\x00\x00\x00\x00\x00\x00'
p355
tp356
bsg34
I1700000
sg35
I441096
sg36
I40
sg37
I1
sg38
I441096
sg39
I211788
sg40
I2081796
sg41
g5
ssS'CLINE KENNETH W'
p357
(dp358
g3
g5
sg4
g5
sg6
g5
sg7
I00
sg8
g5
sg9
g5
sg11
g5
sg12
I-472568
sg13
g5
sg14
g5
sg15
g5
sg16
g5
sg17
g5
sg18
g19
(g20
(I0
tp359
g22
tp360
Rp361
(I1
(I1
tp362
g29
I00
S'\x00\x00\x00\x00\x00\x00\x00\x00'
p363
tp364
bsg34
g5
sg35
I189518
sg36
g5
sg37
g5
sg38
I662086
sg39
g5
sg40
g5
sg41
g5
ssS'LEWIS RICHARD'
p365
(dp366
g3
I952
sg4
g5
sg6
g5
sg7
I00
sg8
g5
sg9
S'richard.lewis@enron.com'
p367
sg11
g5
sg12
g5
sg13
I739
sg14
g5
sg15
I26
sg16
g5
sg17
g5
sg18
g19
(g20
(I0
tp368
g22
tp369
Rp370
(I1
(I1
tp371
g29
I00
S'\x7fcK\x9a\xc1\x8d\xde?'
p372
tp373
bsg34
g5
sg35
I850477
sg36
I10
sg37
I0
sg38
g5
sg39
g5
sg40
g5
sg41
I850477
ssS'HAYES ROBERT E'
p374
(dp375
g3
I504
sg4
I7961
sg6
g5
sg7
I00
sg8
g5
sg9
S'robert.hayes@enron.com'
p376
sg11
g5
sg12
g5
sg13
I50
sg14
g5
sg15
I12
sg16
g5
sg17
g5
sg18
g19
(g20
(I0
tp377
g22
tp378
Rp379
(I1
(I1
tp380
g29
I00
S'\x00\x00\x00\x00\x00\x00\x00\x00'
p381
tp382
bsg34
g5
sg35
I151418
sg36
I16
sg37
I0
sg38
I151418
sg39
g5
sg40
I7961
sg41
g5
ssS'KOPPER MICHAEL J'
p383
(dp384
g3
g5
sg4
g5
sg6
I118134
sg7
I01
sg8
g5
sg9
S'michael.kopper@enron.com'
p385
sg11
I602671
sg12
g5
sg13
g5
sg14
g5
sg15
g5
sg16
I907502
sg17
g5
sg18
g19
(g20
(I0
tp386
g22
tp387
Rp388
(I1
(I1
tp389
g29
I00
S'\x00\x00\x00\x00\x00\x00\x00\x00'
p390
tp391
bsg34
I800000
sg35
I985032
sg36
g5
sg37
g5
sg38
I985032
sg39
I224305
sg40
I2652612
sg41
g5
ssS'LEFF DANIEL P'
p392
(dp393
g3
I2822
sg4
g5
sg6
g5
sg7
I00
sg8
g5
sg9
S'dan.leff@enron.com'
p394
sg11
I1387399
sg12
g5
sg13
I2672
sg14
g5
sg15
I63
sg16
I3083
sg17
g5
sg18
g19
(g20
(I0
tp395
g22
tp396
Rp397
(I1
(I1
tp398
g29
I00
S'\x00\x00\x00\x00\x00\x00\x00\x00'
p399
tp400
bsg34
I1000000
sg35
I360528
sg36
I67
sg37
I14
sg38
I360528
sg39
I273746
sg40
I2664228
sg41
g5
ssS'LAVORATO JOHN J'
p401
(dp402
g3
I7259
sg4
g5
sg6
I49537
sg7
I00
sg8
g5
sg9
S'john.lavorato@enron.com'
p403
sg11
I2035380
sg12
g5
sg13
I3962
sg14
g5
sg15
I2585
sg16
I1552
sg17
g5
sg18
g19
(g20
(I0
tp404
g22
tp405
Rp406
(I1
(I1
tp407
g29
I00
S'>H5\x02\x9f!\xe5?'
p408
tp409
bsg34
I8000000
sg35
I5167144
sg36
I528
sg37
I411
sg38
I1008149
sg39
I339288
sg40
I10425757
sg41
I4158995
ssS'BERBERIAN DAVID'
p410
(dp411
g3
g5
sg4
g5
sg6
I11892
sg7
I00
sg8
g5
sg9
S'david.berberian@enron.com'
p412
sg11
g5
sg12
g5
sg13
g5
sg14
g5
sg15
g5
sg16
g5
sg17
g5
sg18
g19
(g20
(I0
tp413
g22
tp414
Rp415
(I1
(I1
tp416
g29
I00
S'Wi\xfb4\xd7f\xe1?'
p417
tp418
bsg34
g5
sg35
I2493616
sg36
g5
sg37
g5
sg38
I869220
sg39
I216582
sg40
I228474
sg41
I1624396
ssS'DETMERING TIMOTHY J'
p419
(dp420
g3
g5
sg4
I875307
sg6
I52255
sg7
I00
sg8
I-775241
sg9
S'timothy.detmering@enron.com'
p421
sg11
I415657
sg12
I-315068
sg13
g5
sg14
g5
sg15
g5
sg16
I1105
sg17
g5
sg18
g19
(g20
(I0
tp422
g22
tp423
Rp424
(I1
(I1
tp425
g29
I00
S'P\xf4\xa5I\xc1\xd6\xdd?'
p426
tp427
bsg34
I425000
sg35
I2027865
sg36
g5
sg37
g5
sg38
I315068
sg39
I210500
sg40
I1204583
sg41
I2027865
ssS'WAKEHAM JOHN'
p428
(dp429
g3
g5
sg4
g5
sg6
I103773
sg7
I00
sg8
g5
sg9
g5
sg11
g5
sg12
g5
sg13
g5
sg14
g5
sg15
g5
sg16
g5
sg17
I109298
sg18
g19
(g20
(I0
tp430
g22
tp431
Rp432
(I1
(I1
tp433
g29
I00
S'\x00\x00\x00\x00\x00\x00\x00\x00'
p434
tp435
bsg34
g5
sg35
g5
sg36
g5
sg37
g5
sg38
g5
sg39
g5
sg40
I213071
sg41
g5
ssS'POWERS WILLIAM'
p436
(dp437
g3
I653
sg4
g5
sg6
g5
sg7
I00
sg8
I-17500
sg9
S'ken.powers@enron.com'
p438
sg11
g5
sg12
g5
sg13
I12
sg14
g5
sg15
I26
sg16
g5
sg17
I17500
sg18
g19
(g20
(I0
tp439
g22
tp440
Rp441
(I1
(I1
tp442
g29
I00
S'\x00\x00\x00\x00\x00\x00\x00\x00'
p443
tp444
bsg34
g5
sg35
g5
sg36
I0
sg37
I0
sg38
g5
sg39
g5
sg40
g5
sg41
g5
ssS'GOLD JOSEPH'
p445
(dp446
g3
g5
sg4
g5
sg6
g5
sg7
I00
sg8
g5
sg9
S'joe.gold@enron.com'
p447
sg11
I304805
sg12
g5
sg13
g5
sg14
g5
sg15
g5
sg16
I819288
sg17
g5
sg18
g19
(g20
(I0
tp448
g22
tp449
Rp450
(I1
(I1
tp451
g29
I00
S'y\x06P\x12m\xbb\xda?'
p452
tp453
bsg34
I750000
sg35
I877611
sg36
g5
sg37
g5
sg38
I441096
sg39
I272880
sg40
I2146973
sg41
I436515
ssS'BANNANTINE JAMES M'
p454
(dp455
g3
I566
sg4
g5
sg6
I56301
sg7
I00
sg8
I-5104
sg9
S'james.bannantine@enron.com'
p456
sg11
g5
sg12
I-560222
sg13
I465
sg14
g5
sg15
I29
sg16
I864523
sg17
g5
sg18
g19
(g20
(I0
tp457
g22
tp458
Rp459
(I1
(I1
tp460
g29
I00
S'g\xe6k\xf4\xb3\xfb\xe4?'
p461
tp462
bsg34
g5
sg35
I5243487
sg36
I39
sg37
I0
sg38
I1757552
sg39
I477
sg40
I916197
sg41
I4046157
ssS'DUNCAN JOHN H'
p463
(dp464
g3
g5
sg4
g5
sg6
g5
sg7
I00
sg8
I-25000
sg9
g5
sg11
g5
sg12
g5
sg13
g5
sg14
g5
sg15
g5
sg16
g5
sg17
I102492
sg18
g19
(g20
(I0
tp465
g22
tp466
Rp467
(I1
(I1
tp468
g29
I00
S'$\xaed\xee\x1d\xbd\xd9?'
p469
tp470
bsg34
g5
sg35
I371750
sg36
g5
sg37
g5
sg38
g5
sg39
g5
sg40
I77492
sg41
I371750
ssS'SHAPIRO RICHARD S'
p471
(dp472
g3
I15149
sg4
g5
sg6
I137767
sg7
I00
sg8
g5
sg9
S'richard.shapiro@enron.com'
p473
sg11
g5
sg12
g5
sg13
I4527
sg14
g5
sg15
I1215
sg16
I705
sg17
g5
sg18
g19
(g20
(I0
tp474
g22
tp475
Rp476
(I1
(I1
tp477
g29
I00
S'\xff\xba\xa7Nx\x90\xdc?'
p478
tp479
bsg34
I650000
sg35
I987001
sg36
I74
sg37
I65
sg38
I379164
sg39
I269076
sg40
I1057548
sg41
I607837
ssS'SHERRIFF JOHN R'
p480
(dp481
g3
I3187
sg4
g5
sg6
g5
sg7
I00
sg8
g5
sg9
S'john.sherriff@enron.com'
p482
sg11
I554422
sg12
g5
sg13
I2103
sg14
g5
sg15
I92
sg16
I1852186
sg17
g5
sg18
g19
(g20
(I0
tp483
g22
tp484
Rp485
(I1
(I1
tp486
g29
I00
S'\xdcX\xf3\xd5z\xd6\xe1?'
p487
tp488
bsg34
I1500000
sg35
I3128982
sg36
I28
sg37
I23
sg38
I1293424
sg39
I428780
sg40
I4335388
sg41
I1835558
ssS'SHELBY REX'
p489
(dp490
g3
I225
sg4
g5
sg6
I22884
sg7
I01
sg8
I-4167
sg9
S'rex.shelby@enron.com'
p491
sg11
g5
sg12
g5
sg13
I91
sg14
g5
sg15
I39
sg16
I1573324
sg17
g5
sg18
g19
(g20
(I0
tp492
g22
tp493
Rp494
(I1
(I1
tp495
g29
I00
S'C\x8e\x1d?\x9db\xe1?'
p496
tp497
bsg34
I200000
sg35
I2493616
sg36
I13
sg37
I14
sg38
I869220
sg39
I211844
sg40
I2003885
sg41
I1624396
ssS'LEMAISTRE CHARLES'
p498
(dp499
g3
g5
sg4
g5
sg6
g5
sg7
I00
sg8
I-25000
sg9
g5
sg11
g5
sg12
g5
sg13
g5
sg14
g5
sg15
g5
sg16
g5
sg17
I112492
sg18
g19
(g20
(I0
tp500
g22
tp501
Rp502
(I1
(I1
tp503
g29
I00
S'\xb55v\x8e\xf3H\xda?'
p504
tp505
bsg34
g5
sg35
I412878
sg36
g5
sg37
g5
sg38
g5
sg39
g5
sg40
I87492
sg41
I412878
ssS'DEFFNER JOSEPH M'
p506
(dp507
g3
I714
sg4
g5
sg6
I41626
sg7
I00
sg8
g5
sg9
S'joseph.deffner@enron.com'
p508
sg11
I335349
sg12
g5
sg13
I552
sg14
g5
sg15
I74
sg16
I25553
sg17
g5
sg18
g19
(g20
(I0
tp509
g22
tp510
Rp511
(I1
(I1
tp512
g29
I00
S'\xd9\xc3\n\x96b\x0e\xcc?'
p513
tp514
bsg34
I600000
sg35
I159211
sg36
I115
sg37
I4
sg38
I141833
sg39
I206121
sg40
I1208649
sg41
I17378
ssS'KISHKILL JOSEPH G'
p515
(dp516
g3
g5
sg4
g5
sg6
I116335
sg7
I00
sg8
I-51042
sg9
S'joe.kishkill@enron.com'
p517
sg11
g5
sg12
g5
sg13
g5
sg14
g5
sg15
g5
sg16
I465357
sg17
g5
sg18
g19
(g20
(I0
tp518
g22
tp519
Rp520
(I1
(I1
tp521
g29
I00
S'\x00\x00\x00\x00\x00\x00\x00\x00'
p522
tp523
bsg34
g5
sg35
I1034346
sg36
g5
sg37
g5
sg38
I1034346
sg39
I174246
sg40
I704896
sg41
g5
ssS'WHALLEY LAWRENCE G'
p524
(dp525
g3
I6019
sg4
g5
sg6
I57838
sg7
I00
sg8
g5
sg9
S'greg.whalley@enron.com'
p526
sg11
I808346
sg12
g5
sg13
I3920
sg14
g5
sg15
I556
sg16
I301026
sg17
g5
sg18
g19
(g20
(I0
tp527
g22
tp528
Rp529
(I1
(I1
tp530
g29
I00
S'\x7f\x90\x90\xfc\x9a\x19\xe4?'
p531
tp532
bsg34
I3000000
sg35
I6079137
sg36
I186
sg37
I24
sg38
I2796177
sg39
I510364
sg40
I4677574
sg41
I3282960
ssS'PIRO JIM'
p533
(dp534
g3
I58
sg4
g5
sg6
g5
sg7
I00
sg8
g5
sg9
S'jim.piro@enron.com'
p535
sg11
g5
sg12
g5
sg13
I3
sg14
g5
sg15
I16
sg16
g5
sg17
g5
sg18
g19
(g20
(I0
tp536
g22
tp537
Rp538
(I1
(I1
tp539
g29
I00
S'\x00\x00\x00\x00\x00\x00\x00\x00'
p540
tp541
bsg34
g5
sg35
I47304
sg36
I0
sg37
I1
sg38
I47304
sg39
g5
sg40
g5
sg41
g5
ssS'MCCONNELL MICHAEL S'
p542
(dp543
g3
I3329
sg4
g5
sg6
I81364
sg7
I00
sg8
g5
sg9
S'mike.mcconnell@enron.com'
p544
sg11
I554422
sg12
g5
sg13
I2189
sg14
g5
sg15
I2742
sg16
I540
sg17
g5
sg18
g19
(g20
(I0
tp545
g22
tp546
Rp547
(I1
(I1
tp548
g29
I00
S'Y\xf3M[\x12f\xe1?'
p549
tp550
bsg34
I1100000
sg35
I3101279
sg36
I92
sg37
I194
sg38
I1478269
sg39
I365038
sg40
I2101364
sg41
I1623010
ssS'DELAINEY DAVID W'
p551
(dp552
g3
I3093
sg4
g5
sg6
I86174
sg7
I01
sg8
g5
sg9
S'david.delainey@enron.com'
p553
sg11
I1294981
sg12
g5
sg13
I2097
sg14
g5
sg15
I3069
sg16
I1661
sg17
g5
sg18
g19
(g20
(I0
tp554
g22
tp555
Rp556
(I1
(I1
tp557
g29
I00
S'\x81<oCK\xa9\xe2?'
p558
tp559
bsg34
I3000000
sg35
I3614261
sg36
I66
sg37
I609
sg38
I1323148
sg39
I365163
sg40
I4747979
sg41
I2291113
ssS'SULLIVAN-SHAKLOVITZ COLLEEN'
p560
(dp561
g3
g5
sg4
I181993
sg6
g5
sg7
I00
sg8
g5
sg9
g5
sg11
I554422
sg12
g5
sg13
g5
sg14
g5
sg15
g5
sg16
I162
sg17
g5
sg18
g19
(g20
(I0
tp562
g22
tp563
Rp564
(I1
(I1
tp565
g29
I00
S'\xdf?\xa68j\xcb\xe0?'
p566
tp567
bsg34
I100000
sg35
I1362375
sg36
g5
sg37
g5
sg38
g5
sg39
I162779
sg40
I999356
sg41
I1362375
ssS'WROBEL BRUCE'
p568
(dp569
g3
g5
sg4
g5
sg6
g5
sg7
I00
sg8
g5
sg9
g5
sg11
g5
sg12
g5
sg13
g5
sg14
g5
sg15
g5
sg16
g5
sg17
g5
sg18
g19
(g20
(I0
tp570
g22
tp571
Rp572
(I1
(I1
tp573
g29
I00
S'\x04[\xac\x92\x1aD\xd5?'
p574
tp575
bsg34
g5
sg35
I139130
sg36
g5
sg37
g5
sg38
g5
sg39
g5
sg40
g5
sg41
I139130
ssS'LINDHOLM TOD A'
p576
(dp577
g3
g5
sg4
I204075
sg6
I57727
sg7
I00
sg8
g5
sg9
S'tod.lindholm@enron.com'
p578
sg11
I175000
sg12
g5
sg13
g5
sg14
g5
sg15
g5
sg16
I2630
sg17
g5
sg18
g19
(g20
(I0
tp579
g22
tp580
Rp581
(I1
(I1
tp582
g29
I00
S'\xc9Z\xdcJ\x03\x13\xe3?'
p583
tp584
bsg34
I200000
sg35
I3064208
sg36
g5
sg37
g5
sg38
I514847
sg39
I236457
sg40
I875889
sg41
I2549361
ssS'MEYER JEROME J'
p585
(dp586
g3
g5
sg4
g5
sg6
I2151
sg7
I00
sg8
I-38346
sg9
g5
sg11
g5
sg12
g5
sg13
g5
sg14
g5
sg15
g5
sg16
g5
sg17
I38346
sg18
g19
(g20
(I0
tp587
g22
tp588
Rp589
(I1
(I1
tp590
g29
I00
S'\x00\x00\x00\x00\x00\x00\x00\x00'
p591
tp592
bsg34
g5
sg35
g5
sg36
g5
sg37
g5
sg38
g5
sg39
g5
sg40
I2151
sg41
g5
ssS'LAY KENNETH L'
p593
(dp594
g3
I4273
sg4
I202911
sg6
I99832
sg7
I01
sg8
I-300000
sg9
S'kenneth.lay@enron.com'
p595
sg11
I3600000
sg12
g5
sg13
I2411
sg14
I81525000
sg15
I36
sg16
I10359729
sg17
g5
sg18
g19
(g20
(I0
tp596
g22
tp597
Rp598
(I1
(I1
tp599
g29
I00
S'\x07w&\xees\x12\xf6?'
p600
tp601
bsg34
I7000000
sg35
I49110078
sg36
I123
sg37
I16
sg38
I14761694
sg39
I1072321
sg40
I103559793
sg41
I34348384
ssS'BUTTS ROBERT H'
p602
(dp603
g3
g5
sg4
g5
sg6
I9410
sg7
I00
sg8
I-75000
sg9
S'bob.butts@enron.com'
p604
sg11
I175000
sg12
g5
sg13
g5
sg14
g5
sg15
g5
sg16
I150656
sg17
g5
sg18
g19
(g20
(I0
tp605
g22
tp606
Rp607
(I1
(I1
tp608
g29
I00
S'\x00\x00\x00\x00\x00\x00\x00\x00'
p609
tp610
bsg34
I750000
sg35
I417619
sg36
g5
sg37
g5
sg38
I417619
sg39
I261516
sg40
I1271582
sg41
g5
ssS'OLSON CINDY K'
p611
(dp612
g3
I1184
sg4
I77716
sg6
I63791
sg7
I00
sg8
g5
sg9
S'cindy.olson@enron.com'
p613
sg11
I100000
sg12
g5
sg13
I856
sg14
g5
sg15
I52
sg16
I972
sg17
g5
sg18
g19
(g20
(I0
tp614
g22
tp615
Rp616
(I1
(I1
tp617
g29
I00
S'\x01\x11=+\xd4m\xe1?'
p618
tp619
bsg34
I750000
sg35
I2606763
sg36
I20
sg37
I15
sg38
I969729
sg39
I329078
sg40
I1321557
sg41
I1637034
ssS'MCDONALD REBECCA'
p620
(dp621
g3
I894
sg4
g5
sg6
g5
sg7
I00
sg8
g5
sg9
S'rebecca.mcdonald@enron.com'
p622
sg11
g5
sg12
g5
sg13
I720
sg14
g5
sg15
I13
sg16
g5
sg17
g5
sg18
g19
(g20
(I0
tp623
g22
tp624
Rp625
(I1
(I1
tp626
g29
I00
S'\x0c\xadV\xea\xd6\xd9\xdd?'
p627
tp628
bsg34
g5
sg35
I1691366
sg36
I54
sg37
I1
sg38
I934065
sg39
g5
sg40
g5
sg41
I757301
ssS'CUMBERLAND MICHAEL S'
p629
(dp630
g3
g5
sg4
g5
sg6
I22344
sg7
I00
sg8
g5
sg9
g5
sg11
I275000
sg12
g5
sg13
g5
sg14
g5
sg15
g5
sg16
I713
sg17
g5
sg18
g19
(g20
(I0
tp631
g22
tp632
Rp633
(I1
(I1
tp634
g29
I00
S'\x00\x00\x00\x00\x00\x00\x00\x00'
p635
tp636
bsg34
I325000
sg35
I207940
sg36
g5
sg37
g5
sg38
I207940
sg39
I184899
sg40
I807956
sg41
g5
ssS'GAHN ROBERT S'
p637
(dp638
g3
g5
sg4
I73122
sg6
I50080
sg7
I00
sg8
I-1042
sg9
g5
sg11
g5
sg12
g5
sg13
g5
sg14
g5
sg15
g5
sg16
I76547
sg17
g5
sg18
g19
(g20
(I0
tp639
g22
tp640
Rp641
(I1
(I1
tp642
g29
I00
S'\xb1\xbc\xcf\xcaV/\xd3?'
p643
tp644
bsg34
I509870
sg35
I318607
sg36
g5
sg37
g5
sg38
I235370
sg39
I192008
sg40
I900585
sg41
I83237
ssS'BADUM JAMES P'
p645
(dp646
g3
g5
sg4
I178980
sg6
I3486
sg7
I00
sg8
g5
sg9
g5
sg11
g5
sg12
g5
sg13
g5
sg14
g5
sg15
g5
sg16
g5
sg17
g5
sg18
g19
(g20
(I0
tp647
g22
tp648
Rp649
(I1
(I1
tp650
g29
I00
S'\x8b6\x02\xf4\n\x0f\xd8?'
p651
tp652
bsg34
g5
sg35
I257817
sg36
g5
sg37
g5
sg38
g5
sg39
g5
sg40
I182466
sg41
I257817
ssS'HERMANN ROBERT J'
p653
(dp654
g3
g5
sg4
g5
sg6
I48357
sg7
I00
sg8
I-280000
sg9
S'robert.hermann@enron.com'
p655
sg11
I150000
sg12
g5
sg13
g5
sg14
g5
sg15
g5
sg16
I416441
sg17
g5
sg18
g19
(g20
(I0
tp656
g22
tp657
Rp658
(I1
(I1
tp659
g29
I00
S'\xcb\x9b\xfd\x06{\x1e\xd5?'
p660
tp661
bsg34
I700000
sg35
I668132
sg36
g5
sg37
g5
sg38
I480632
sg39
I262663
sg40
I1297461
sg41
I187500
ssS'FALLON JAMES B'
p662
(dp663
g3
I1755
sg4
g5
sg6
I95924
sg7
I00
sg8
g5
sg9
S'jim.fallon@enron.com'
p664
sg11
I374347
sg12
g5
sg13
I1604
sg14
g5
sg15
I75
sg16
I401481
sg17
g5
sg18
g19
(g20
(I0
tp665
g22
tp666
Rp667
(I1
(I1
tp668
g29
I00
S'\xec\xab5\xa9\xe0,\xdf?'
p669
tp670
bsg34
I2500000
sg35
I2332399
sg36
I42
sg37
I37
sg38
I1392142
sg39
I304588
sg40
I3676340
sg41
I940257
ssS'GATHMANN WILLIAM D'
p671
(dp672
g3
g5
sg4
g5
sg6
g5
sg7
I00
sg8
g5
sg9
g5
sg11
g5
sg12
I-72419
sg13
g5
sg14
g5
sg15
g5
sg16
g5
sg17
g5
sg18
g19
(g20
(I0
tp673
g22
tp674
Rp675
(I1
(I1
tp676
g29
I00
S"\xdb'D\x0ez\xac\xe1?"
p677
tp678
bsg34
g5
sg35
I1945360
sg36
g5
sg37
g5
sg38
I264013
sg39
g5
sg40
g5
sg41
I1753766
ssS'HORTON STANLEY C'
p679
(dp680
g3
I2350
sg4
I3131860
sg6
g5
sg7
I00
sg8
g5
sg9
S'stanley.horton@enron.com'
p681
sg11
g5
sg12
g5
sg13
I1074
sg14
g5
sg15
I1073
sg16
g5
sg17
g5
sg18
g19
(g20
(I0
tp682
g22
tp683
Rp684
(I1
(I1
tp685
g29
I00
S'\xdf\xdd\xc6XS2\xe6?'
p686
tp687
bsg34
g5
sg35
I7256648
sg36
I44
sg37
I15
sg38
I2046079
sg39
g5
sg40
I3131860
sg41
I5210569
ssS'BOWEN JR RAYMOND M'
p688
(dp689
g3
I1858
sg4
g5
sg6
I65907
sg7
I01
sg8
I-833
sg9
S'raymond.bowen@enron.com'
p690
sg11
I974293
sg12
g5
sg13
I1593
sg14
g5
sg15
I27
sg16
I1621
sg17
g5
sg18
g19
(g20
(I0
tp691
g22
tp692
Rp693
(I1
(I1
tp694
g29
I00
S'\x00\x00\x00\x00\x00\x00\x00\x00'
p695
tp696
bsg34
I1350000
sg35
I252055
sg36
I140
sg37
I15
sg38
I252055
sg39
I278601
sg40
I2669589
sg41
g5
ssS'GILLIS JOHN'
p697
(dp698
g3
g5
sg4
g5
sg6
g5
sg7
I00
sg8
g5
sg9
g5
sg11
g5
sg12
g5
sg13
g5
sg14
g5
sg15
g5
sg16
g5
sg17
g5
sg18
g19
(g20
(I0
tp699
g22
tp700
Rp701
(I1
(I1
tp702
g29
I00
S'\xe7I\xda\xa2P\x05\xc9?'
p703
tp704
bsg34
g5
sg35
I85641
sg36
g5
sg37
g5
sg38
I75838
sg39
g5
sg40
g5
sg41
I9803
ssS'FITZGERALD JAY L'
p705
(dp706
g3
I936
sg4
g5
sg6
I23870
sg7
I00
sg8
g5
sg9
S'jay.fitzgerald@enron.com'
p707
sg11
I556416
sg12
g5
sg13
I723
sg14
g5
sg15
I16
sg16
I285414
sg17
g5
sg18
g19
(g20
(I0
tp708
g22
tp709
Rp710
(I1
(I1
tp711
g29
I00
S'\x1d0D\xb9 \x14\xdd?'
p712
tp713
bsg34
I350000
sg35
I1621236
sg36
I1
sg37
I8
sg38
I956775
sg39
I199157
sg40
I1414857
sg41
I664461
ssS'MORAN MICHAEL P'
p714
(dp715
g3
I672
sg4
g5
sg6
g5
sg7
I00
sg8
g5
sg9
S'michael.moran@enron.com'
p716
sg11
g5
sg12
g5
sg13
I127
sg14
g5
sg15
I19
sg16
g5
sg17
g5
sg18
g19
(g20
(I0
tp717
g22
tp718
Rp719
(I1
(I1
tp720
g29
I00
S'\x92\xcf\xfei\x17\xf2\xd1?'
p721
tp722
bsg34
g5
sg35
I221141
sg36
I0
sg37
I0
sg38
I161602
sg39
g5
sg40
g5
sg41
I59539
ssS'REDMOND BRIAN L'
p723
(dp724
g3
I1671
sg4
g5
sg6
I14689
sg7
I00
sg8
g5
sg9
S'brian.redmond@enron.com'
p725
sg11
g5
sg12
g5
sg13
I1063
sg14
g5
sg15
I221
sg16
g5
sg17
g5
sg18
g19
(g20
(I0
tp726
g22
tp727
Rp728
(I1
(I1
tp729
g29
I00
S'B\x84\x00\xfe\xc1*\xe8?'
p730
tp731
bsg34
g5
sg35
I7890324
sg36
I204
sg37
I49
sg38
I381285
sg39
I96840
sg40
I111529
sg41
I7509039
ssS'BAZELIDES PHILIP J'
p732
(dp733
g3
g5
sg4
I684694
sg6
g5
sg7
I00
sg8
g5
sg9
g5
sg11
I93750
sg12
g5
sg13
g5
sg14
g5
sg15
g5
sg16
I874
sg17
g5
sg18
g19
(g20
(I0
tp734
g22
tp735
Rp736
(I1
(I1
tp737
g29
I00
S'\xd0\x0fI\x81\x07Y\xe1?'
p738
tp739
bsg34
g5
sg35
I1599641
sg36
g5
sg37
g5
sg38
g5
sg39
I80818
sg40
I860136
sg41
I1599641
ssS'BELDEN TIMOTHY N'
p740
(dp741
g3
I7991
sg4
I2144013
sg6
I17355
sg7
I01
sg8
I-2334434
sg9
S'tim.belden@enron.com'
p742
sg11
g5
sg12
g5
sg13
I5521
sg14
g5
sg15
I484
sg16
I210698
sg17
g5
sg18
g19
(g20
(I0
tp743
g22
tp744
Rp745
(I1
(I1
tp746
g29
I00
S'\xd3\x8c\x01\xda\xd1\x12\xca?'
p747
tp748
bsg34
I5249999
sg35
I1110705
sg36
I228
sg37
I108
sg38
I157569
sg39
I213999
sg40
I5501630
sg41
I953136
ssS'DIMICHELE RICHARD G'
p749
(dp750
g3
g5
sg4
g5
sg6
I35812
sg7
I00
sg8
g5
sg9
S'richard.dimichele@enron.com'
p751
sg11
I694862
sg12
g5
sg13
g5
sg14
g5
sg15
g5
sg16
I374689
sg17
g5
sg18
g19
(g20
(I0
tp752
g22
tp753
Rp754
(I1
(I1
tp755
g29
I00
S'\xe9]\x03B\x9c\xb2\xe8?'
p756
tp757
bsg34
I1000000
sg35
I8317782
sg36
g5
sg37
g5
sg38
I126027
sg39
I262788
sg40
I2368151
sg41
I8191755
ssS'DURAN WILLIAM D'
p758
(dp759
g3
I904
sg4
g5
sg6
I25785
sg7
I00
sg8
g5
sg9
S'w.duran@enron.com'
p760
sg11
I1105218
sg12
g5
sg13
I599
sg14
g5
sg15
I12
sg16
I1568
sg17
g5
sg18
g19
(g20
(I0
tp761
g22
tp762
Rp763
(I1
(I1
tp764
g29
I00
S'Wf\xa4\xa6\xef\x02\xe1?'
p765
tp766
bsg34
I750000
sg35
I1640910
sg36
I106
sg37
I3
sg38
I189041
sg39
I210692
sg40
I2093263
sg41
I1451869
ssS'THORN TERENCE H'
p767
(dp768
g3
I266
sg4
I16586
sg6
I46145
sg7
I00
sg8
g5
sg9
S'terence.thorn@enron.com'
p769
sg11
I200000
sg12
g5
sg13
I73
sg14
g5
sg15
I41
sg16
I426629
sg17
g5
sg18
g19
(g20
(I0
tp770
g22
tp771
Rp772
(I1
(I1
tp773
g29
I00
S'\xd7#\xf2g\xafq\xe5?'
p774
tp775
bsg34
g5
sg35
I4817796
sg36
I0
sg37
I0
sg38
I365320
sg39
I222093
sg40
I911453
sg41
I4452476
ssS'FASTOW ANDREW S'
p776
(dp777
g3
g5
sg4
g5
sg6
I55921
sg7
I01
sg8
I-1386055
sg9
S'andrew.fastow@enron.com'
p778
sg11
I1736055
sg12
g5
sg13
g5
sg14
g5
sg15
g5
sg16
I277464
sg17
g5
sg18
g19
(g20
(I0
tp779
g22
tp780
Rp781
(I1
(I1
tp782
g29
I00
S'\x00\x00\x00\x00\x00\x00\x00\x00'
p783
tp784
bsg34
I1300000
sg35
I1794412
sg36
g5
sg37
g5
sg38
I1794412
sg39
I440698
sg40
I2424083
sg41
g5
ssS'FOY JOE'
p785
(dp786
g3
I57
sg4
I181755
sg6
g5
sg7
I00
sg8
g5
sg9
S'tracy.foy@enron.com'
p787
sg11
g5
sg12
g5
sg13
I2
sg14
g5
sg15
I13
sg16
g5
sg17
g5
sg18
g19
(g20
(I0
tp788
g22
tp789
Rp790
(I1
(I1
tp791
g29
I00
S'\n\xa7u\x7f\xb9z\xd9?'
p792
tp793
bsg34
g5
sg35
I343434
sg36
I0
sg37
I0
sg38
g5
sg39
g5
sg40
I181755
sg41
I343434
ssS'CALGER CHRISTOPHER F'
p794
(dp795
g3
I2598
sg4
g5
sg6
I35818
sg7
I01
sg8
I-262500
sg9
S'christopher.calger@enron.com'
p796
sg11
I375304
sg12
g5
sg13
I2188
sg14
g5
sg15
I144
sg16
I486
sg17
g5
sg18
g19
(g20
(I0
tp797
g22
tp798
Rp799
(I1
(I1
tp800
g29
I00
S'\x00\x00\x00\x00\x00\x00\x00\x00'
p801
tp802
bsg34
I1250000
sg35
I126027
sg36
I199
sg37
I25
sg38
I126027
sg39
I240189
sg40
I1639297
sg41
g5
ssS'RICE KENNETH D'
p803
(dp804
g3
I905
sg4
g5
sg6
I46950
sg7
I01
sg8
I-3504386
sg9
S'ken.rice@enron.com'
p805
sg11
I1617011
sg12
g5
sg13
I864
sg14
g5
sg15
I18
sg16
I174839
sg17
g5
sg18
g19
(g20
(I0
tp806
g22
tp807
Rp808
(I1
(I1
tp809
g29
I00
S'\x00\x00\x00\x00\x00\x00\x00\x00'
p810
tp811
bsg34
I1750000
sg35
I22542539
sg36
I42
sg37
I4
sg38
I2748364
sg39
I420636
sg40
I505050
sg41
I19794175
ssS'KAMINSKI WINCENTY J'
p812
(dp813
g3
I4607
sg4
g5
sg6
I83585
sg7
I00
sg8
g5
sg9
S'vince.kaminski@enron.com'
p814
sg11
I323466
sg12
g5
sg13
I583
sg14
g5
sg15
I14368
sg16
I4669
sg17
g5
sg18
g19
(g20
(I0
tp815
g22
tp816
Rp817
(I1
(I1
tp818
g29
I00
S'\xf8\x0f\xb4\xfa\xe4\x8c\xde?'
p819
tp820
bsg34
I400000
sg35
I976037
sg36
I41
sg37
I171
sg38
I126027
sg39
I275101
sg40
I1086821
sg41
I850010
ssS'LOCKHART EUGENE E'
p821
(dp822
g3
g5
sg4
g5
sg6
g5
sg7
I00
sg8
g5
sg9
g5
sg11
g5
sg12
g5
sg13
g5
sg14
g5
sg15
g5
sg16
g5
sg17
g5
sg18
g19
(g20
(I0
tp823
g22
tp824
Rp825
(I1
(I1
tp826
g29
I00
S'\x00\x00\x00\x00\x00\x00\x00\x00'
p827
tp828
bsg34
g5
sg35
g5
sg36
g5
sg37
g5
sg38
g5
sg39
g5
sg40
g5
sg41
g5
ssS'COX DAVID'
p829
(dp830
g3
I102
sg4
g5
sg6
I27861
sg7
I00
sg8
I-41250
sg9
S'chip.cox@enron.com'
p831
sg11
g5
sg12
g5
sg13
I71
sg14
g5
sg15
I33
sg16
I494
sg17
g5
sg18
g19
(g20
(I0
tp832
g22
tp833
Rp834
(I1
(I1
tp835
g29
I00
S'F\xc0\xab\xf1\x04^\xd4?'
p836
tp837
bsg34
I800000
sg35
I495633
sg36
I0
sg37
I4
sg38
I378082
sg39
I314288
sg40
I1101393
sg41
I117551
ssS'OVERDYKE JR JERE C'
p838
(dp839
g3
g5
sg4
g5
sg6
I18834
sg7
I00
sg8
g5
sg9
S'jere.overdyke@enron.com'
p840
sg11
I135836
sg12
g5
sg13
g5
sg14
g5
sg15
g5
sg16
I176
sg17
g5
sg18
g19
(g20
(I0
tp841
g22
tp842
Rp843
(I1
(I1
tp844
g29
I00
S'*\xea\xc4\x9e\xdf?\xe6?'
p845
tp846
bsg34
g5
sg35
I7307594
sg36
g5
sg37
g5
sg38
I2041016
sg39
I94941
sg40
I249787
sg41
I5266578
ssS'PEREIRA PAULO V. FERRAZ'
p847
(dp848
g3
g5
sg4
g5
sg6
I27942
sg7
I00
sg8
I-101250
sg9
g5
sg11
g5
sg12
g5
sg13
g5
sg14
g5
sg15
g5
sg16
g5
sg17
I101250
sg18
g19
(g20
(I0
tp849
g22
tp850
Rp851
(I1
(I1
tp852
g29
I00
S'\x00\x00\x00\x00\x00\x00\x00\x00'
p853
tp854
bsg34
g5
sg35
g5
sg36
g5
sg37
g5
sg38
g5
sg39
g5
sg40
I27942
sg41
g5
ssS'STABLER FRANK'
p855
(dp856
g3
g5
sg4
g5
sg6
I16514
sg7
I00
sg8
g5
sg9
S'frank.stabler@enron.com'
p857
sg11
g5
sg12
g5
sg13
g5
sg14
g5
sg15
g5
sg16
I356071
sg17
g5
sg18
g19
(g20
(I0
tp858
g22
tp859
Rp860
(I1
(I1
tp861
g29
I00
S'\x00\x00\x00\x00\x00\x00\x00\x00'
p862
tp863
bsg34
I500000
sg35
I511734
sg36
g5
sg37
g5
sg38
I511734
sg39
I239502
sg40
I1112087
sg41
g5
ssS'SKILLING JEFFREY K'
p864
(dp865
g3
I3627
sg4
g5
sg6
I29336
sg7
I01
sg8
g5
sg9
S'jeff.skilling@enron.com'
p866
sg11
I1920000
sg12
g5
sg13
I2042
sg14
g5
sg15
I108
sg16
I22122
sg17
g5
sg18
g19
(g20
(I0
tp867
g22
tp868
Rp869
(I1
(I1
tp870
g29
I00
S'\xcb\xaf\xac\x14\xeeU\xf0?'
p871
tp872
bsg34
I5600000
sg35
I26093672
sg36
I88
sg37
I30
sg38
I6843672
sg39
I1111258
sg40
I8682716
sg41
I19250000
ssS'BLAKE JR. NORMAN P'
p873
(dp874
g3
g5
sg4
g5
sg6
I1279
sg7
I00
sg8
I-113784
sg9
g5
sg11
g5
sg12
g5
sg13
g5
sg14
g5
sg15
g5
sg16
g5
sg17
I113784
sg18
g19
(g20
(I0
tp875
g22
tp876
Rp877
(I1
(I1
tp878
g29
I00
S'\x00\x00\x00\x00\x00\x00\x00\x00'
p879
tp880
bsg34
g5
sg35
g5
sg36
g5
sg37
g5
sg38
g5
sg39
g5
sg40
I1279
sg41
g5
ssS'SHERRICK JEFFREY B'
p881
(dp882
g3
I613
sg4
g5
sg6
g5
sg7
I00
sg8
g5
sg9
S'jeffrey.sherrick@enron.com'
p883
sg11
g5
sg12
g5
sg13
I583
sg14
g5
sg15
I25
sg16
g5
sg17
g5
sg18
g19
(g20
(I0
tp884
g22
tp885
Rp886
(I1
(I1
tp887
g29
I00
S'\xd5\xb7:\xddt\xf3\xe0?'
p888
tp889
bsg34
g5
sg35
I1832468
sg36
I39
sg37
I18
sg38
I405999
sg39
g5
sg40
g5
sg41
I1426469
ssS'PRENTICE JAMES'
p890
(dp891
g3
g5
sg4
I564348
sg6
g5
sg7
I00
sg8
g5
sg9
S'james.prentice@enron.com'
p892
sg11
g5
sg12
g5
sg13
g5
sg14
g5
sg15
g5
sg16
g5
sg17
g5
sg18
g19
(g20
(I0
tp893
g22
tp894
Rp895
(I1
(I1
tp896
g29
I00
S'k9!l\xa6\xce\xde?'
p897
tp898
bsg34
g5
sg35
I1095040
sg36
g5
sg37
g5
sg38
I208809
sg39
g5
sg40
I564348
sg41
I886231
ssS'GRAY RODNEY'
p899
(dp900
g3
g5
sg4
I93585
sg6
g5
sg7
I00
sg8
g5
sg9
g5
sg11
I365625
sg12
g5
sg13
g5
sg14
g5
sg15
g5
sg16
I680833
sg17
g5
sg18
g19
(g20
(I0
tp901
g22
tp902
Rp903
(I1
(I1
tp904
g29
I00
S'\x00\x00\x00\x00\x00\x00\x00\x00'
p905
tp906
bsg34
g5
sg35
g5
sg36
g5
sg37
g5
sg38
g5
sg39
I6615
sg40
I1146658
sg41
g5
ssS'THE TRAVEL AGENCY IN THE PARK'
p907
(dp908
g3
g5
sg4
g5
sg6
g5
sg7
I00
sg8
g5
sg9
g5
sg11
g5
sg12
g5
sg13
g5
sg14
g5
sg15
g5
sg16
I362096
sg17
g5
sg18
g19
(g20
(I0
tp909
g22
tp910
Rp911
(I1
(I1
tp912
g29
I00
S'\x00\x00\x00\x00\x00\x00\x00\x00'
p913
tp914
bsg34
g5
sg35
g5
sg36
g5
sg37
g5
sg38
g5
sg39
g5
sg40
I362096
sg41
g5
ssS'UMANOFF ADAM S'
p915
(dp916
g3
I111
sg4
g5
sg6
I53122
sg7
I00
sg8
g5
sg9
S'adam.umanoff@enron.com'
p917
sg11
g5
sg12
g5
sg13
I41
sg14
g5
sg15
I18
sg16
g5
sg17
g5
sg18
g19
(g20
(I0
tp918
g22
tp919
Rp920
(I1
(I1
tp921
g29
I00
S'\x00\x00\x00\x00\x00\x00\x00\x00'
p922
tp923
bsg34
I788750
sg35
g5
sg36
I12
sg37
I0
sg38
g5
sg39
I288589
sg40
I1130461
sg41
g5
ssS'KEAN STEVEN J'
p924
(dp925
g3
I12754
sg4
g5
sg6
I41953
sg7
I00
sg8
g5
sg9
S'steven.kean@enron.com'
p926
sg11
I300000
sg12
g5
sg13
I3639
sg14
g5
sg15
I6759
sg16
I1231
sg17
g5
sg18
g19
(g20
(I0
tp927
g22
tp928
Rp929
(I1
(I1
tp930
g29
I00
S'{e\x84\xd9 1\xe2?'
p931
tp932
bsg34
I1000000
sg35
I6153642
sg36
I140
sg37
I387
sg38
I4131594
sg39
I404338
sg40
I1747522
sg41
I2022048
ssS'FOWLER PEGGY'
p933
(dp934
g3
I517
sg4
g5
sg6
g5
sg7
I00
sg8
g5
sg9
S'kulvinder.fowler@enron.com'
p935
sg11
g5
sg12
g5
sg13
I10
sg14
g5
sg15
I36
sg16
g5
sg17
g5
sg18
g19
(g20
(I0
tp936
g22
tp937
Rp938
(I1
(I1
tp939
g29
I00
S'\x80\xfc\x0f\x18\x1b\xb3\xe0?'
p940
tp941
bsg34
g5
sg35
I1884748
sg36
I0
sg37
I0
sg38
I560170
sg39
g5
sg40
g5
sg41
I1324578
ssS'WASAFF GEORGE'
p942
(dp943
g3
I400
sg4
I831299
sg6
g5
sg7
I00
sg8
I-583325
sg9
S'george.wasaff@enron.com'
p944
sg11
I200000
sg12
g5
sg13
I337
sg14
g5
sg15
I30
sg16
I1425
sg17
g5
sg18
g19
(g20
(I0
tp945
g22
tp946
Rp947
(I1
(I1
tp948
g29
I00
S'CI\x18"\xa8C\xde?'
p949
tp950
bsg34
I325000
sg35
I2056427
sg36
I22
sg37
I7
sg38
I388167
sg39
I259996
sg40
I1034395
sg41
I1668260
ssS'WHITE JR THOMAS E'
p951
(dp952
g3
g5
sg4
g5
sg6
I81353
sg7
I00
sg8
g5
sg9
S'thomas.white@enron.com'
p953
sg11
g5
sg12
g5
sg13
g5
sg14
g5
sg15
g5
sg16
I1085463
sg17
g5
sg18
g19
(g20
(I0
tp954
g22
tp955
Rp956
(I1
(I1
tp957
g29
I00
S'\x8d\xed8^\x0e\xa1\xe0?'
p958
tp959
bsg34
I450000
sg35
I15144123
sg36
g5
sg37
g5
sg38
I13847074
sg39
I317543
sg40
I1934359
sg41
I1297049
ssS'CHRISTODOULOU DIOMEDES'
p960
(dp961
g3
g5
sg4
g5
sg6
g5
sg7
I00
sg8
g5
sg9
S'diomedes.christodoulou@enron.com'
p962
sg11
g5
sg12
g5
sg13
g5
sg14
g5
sg15
g5
sg16
g5
sg17
g5
sg18
g19
(g20
(I0
tp963
g22
tp964
Rp965
(I1
(I1
tp966
g29
I00
S'\xf6\xbc\xd9\xb3\xfd\x1d\xe6?'
p967
tp968
bsg34
g5
sg35
I6077885
sg36
g5
sg37
g5
sg38
I950730
sg39
g5
sg40
g5
sg41
I5127155
ssS'ALLEN PHILLIP K'
p969
(dp970
g3
I2902
sg4
I2869717
sg6
I13868
sg7
I00
sg8
I-3081055
sg9
S'phillip.allen@enron.com'
p971
sg11
I304805
sg12
I-126027
sg13
I1407
sg14
g5
sg15
I2195
sg16
I152
sg17
g5
sg18
g19
(g20
(I0
tp972
g22
tp973
Rp974
(I1
(I1
tp975
g29
I00
S'jXT\x8e\xe5\x1f\xbc?'
p976
tp977
bsg34
I4175000
sg35
I1729541
sg36
I47
sg37
I65
sg38
I126027
sg39
I201955
sg40
I4484442
sg41
I1729541
ssS'SHARP VICTORIA T'
p978
(dp979
g3
I3136
sg4
I187469
sg6
I116337
sg7
I00
sg8
g5
sg9
S'vicki.sharp@enron.com'
p980
sg11
I422158
sg12
g5
sg13
I2477
sg14
g5
sg15
I136
sg16
I2401
sg17
g5
sg18
g19
(g20
(I0
tp981
g22
tp982
Rp983
(I1
(I1
tp984
g29
I00
S'\xa8\xa3Srbz\xd8?'
p985
tp986
bsg34
I600000
sg35
I494136
sg36
I24
sg37
I6
sg38
I213063
sg39
I248146
sg40
I1576511
sg41
I281073
ssS'JAEDICKE ROBERT'
p987
(dp988
g3
g5
sg4
g5
sg6
g5
sg7
I00
sg8
I-25000
sg9
g5
sg11
g5
sg12
I-44093
sg13
g5
sg14
g5
sg15
g5
sg16
g5
sg17
I108750
sg18
g19
(g20
(I0
tp989
g22
tp990
Rp991
(I1
(I1
tp992
g29
I00
S'\r\x7f\xaa\xc4j\x85\xda?'
p993
tp994
bsg34
g5
sg35
I431750
sg36
g5
sg37
g5
sg38
I44093
sg39
g5
sg40
I83750
sg41
I431750
ssS'WINOKUR JR. HERBERT S'
p995
(dp996
g3
g5
sg4
g5
sg6
I1413
sg7
I00
sg8
I-25000
sg9
g5
sg11
g5
sg12
g5
sg13
g5
sg14
g5
sg15
g5
sg16
g5
sg17
I108579
sg18
g19
(g20
(I0
tp997
g22
tp998
Rp999
(I1
(I1
tp1000
g29
I00
S'\x00\x00\x00\x00\x00\x00\x00\x00'
p1001
tp1002
bsg34
g5
sg35
g5
sg36
g5
sg37
g5
sg38
g5
sg39
g5
sg40
I84992
sg41
g5
ssS'BROWN MICHAEL'
p1003
(dp1004
g3
I1486
sg4
g5
sg6
I49288
sg7
I00
sg8
g5
sg9
S'michael.brown@enron.com'
p1005
sg11
g5
sg12
g5
sg13
I761
sg14
g5
sg15
I41
sg16
g5
sg17
g5
sg18
g19
(g20
(I0
tp1006
g22
tp1007
Rp1008
(I1
(I1
tp1009
g29
I00
S'\x00\x00\x00\x00\x00\x00\x00\x00'
p1010
tp1011
bsg34
g5
sg35
g5
sg36
I13
sg37
I1
sg38
g5
sg39
g5
sg40
I49288
sg41
g5
ssS'MCCLELLAN GEORGE'
p1012
(dp1013
g3
I1744
sg4
g5
sg6
I228763
sg7
I00
sg8
I-125000
sg9
S'george.mcclellan@enron.com'
p1014
sg11
g5
sg12
g5
sg13
I1469
sg14
g5
sg15
I49
sg16
I51587
sg17
g5
sg18
g19
(g20
(I0
tp1015
g22
tp1016
Rp1017
(I1
(I1
tp1018
g29
I00
S'\xe3\x82\xa5\x8c\x11\xc1\xda?'
p1019
tp1020
bsg34
I900000
sg35
I947861
sg36
I52
sg37
I0
sg38
I441096
sg39
I263413
sg40
I1318763
sg41
I506765
ssS'HUGHES JAMES A'
p1021
(dp1022
g3
I719
sg4
g5
sg6
g5
sg7
I00
sg8
g5
sg9
S'james.hughes@enron.com'
p1023
sg11
g5
sg12
g5
sg13
I589
sg14
g5
sg15
I34
sg16
g5
sg17
g5
sg18
g19
(g20
(I0
tp1024
g22
tp1025
Rp1026
(I1
(I1
tp1027
g29
I00
S'-\xc9S\x1d\x1c\xd5\xdd?'
p1028
tp1029
bsg34
g5
sg35
I1118394
sg36
I35
sg37
I5
sg38
I363428
sg39
g5
sg40
g5
sg41
I754966
ssS'REYNOLDS LAWRENCE'
p1030
(dp1031
g3
g5
sg4
I51365
sg6
I8409
sg7
I00
sg8
I-200000
sg9
g5
sg11
I156250
sg12
I-140264
sg13
g5
sg14
g5
sg15
g5
sg16
I202052
sg17
g5
sg18
g19
(g20
(I0
tp1032
g22
tp1033
Rp1034
(I1
(I1
tp1035
g29
I00
S'r\x1f\t\x15J.\xe4?'
p1036
tp1037
bsg34
I100000
sg35
I4221891
sg36
g5
sg37
g5
sg38
I201483
sg39
I76399
sg40
I394475
sg41
I4160672
ssS'PICKERING MARK R'
p1038
(dp1039
g3
I898
sg4
g5
sg6
I31653
sg7
I00
sg8
g5
sg9
S'mark.pickering@enron.com'
p1040
sg11
g5
sg12
g5
sg13
I728
sg14
I400000
sg15
I67
sg16
g5
sg17
g5
sg18
g19
(g20
(I0
tp1041
g22
tp1042
Rp1043
(I1
(I1
tp1044
g29
I00
S'\x8d+d\xf3\xdd\t\xcf?'
p1045
tp1046
bsg34
I300000
sg35
I28798
sg36
I7
sg37
I0
sg38
g5
sg39
I655037
sg40
I1386690
sg41
I28798
ssS'BHATNAGAR SANJAY'
p1047
(dp1048
g3
I523
sg4
g5
sg6
g5
sg7
I00
sg8
g5
sg9
S'sanjay.bhatnagar@enron.com'
p1049
sg11
g5
sg12
I15456290
sg13
I463
sg14
g5
sg15
I29
sg16
I137864
sg17
I137864
sg18
g19
(g20
(I0
tp1050
g22
tp1051
Rp1052
(I1
(I1
tp1053
g29
I00
S'V\x95\xe4\xd5\x89(\xe3?'
p1054
tp1055
bsg34
g5
sS'total_stock_value'
p1056
S'NaN'
p1057
sg36
I0
sg37
I1
sg38
I-2604490
sg39
g5
sg40
I15456290
sg41
I2604490
ssS'CARTER REBECCA C'
p1058
(dp1059
g3
I312
sg4
g5
sg6
g5
sg7
I00
sg8
I-159792
sg9
S'rebecca.carter@enron.com'
p1060
sg11
I75000
sg12
I-307301
sg13
I196
sg14
g5
sg15
I15
sg16
I540
sg17
g5
sg18
g19
(g20
(I0
tp1061
g22
tp1062
Rp1063
(I1
(I1
tp1064
g29
I00
S'\x00\x00\x00\x00\x00\x00\x00\x00'
p1065
tp1066
bsg34
I300000
sg35
g5
sg36
I29
sg37
I7
sg38
I307301
sg39
I261809
sg40
I477557
sg41
g5
ssS'BUCHANAN HAROLD G'
p1067
(dp1068
g3
I1088
sg4
g5
sg6
I600
sg7
I00
sg8
g5
sg9
S'john.buchanan@enron.com'
p1069
sg11
I304805
sg12
g5
sg13
I23
sg14
g5
sg15
I125
sg16
I1215
sg17
g5
sg18
g19
(g20
(I0
tp1070
g22
tp1071
Rp1072
(I1
(I1
tp1073
g29
I00
S'Xf~\x0b\x0f_\xde?'
p1074
tp1075
bsg34
I500000
sg35
I1014505
sg36
I0
sg37
I0
sg38
I189041
sg39
I248017
sg40
I1054637
sg41
I825464
ssS'YEAP SOON'
p1076
(dp1077
g3
g5
sg4
g5
sg6
I55097
sg7
I00
sg8
g5
sg9
g5
sg11
g5
sg12
g5
sg13
g5
sg14
g5
sg15
g5
sg16
g5
sg17
g5
sg18
g19
(g20
(I0
tp1078
g22
tp1079
Rp1080
(I1
(I1
tp1081
g29
I00
S'\xe5D\xf8$\xf6\xb2\xd6?'
p1082
tp1083
bsg34
g5
sg35
I192758
sg36
g5
sg37
g5
sg38
g5
sg39
g5
sg40
I55097
sg41
I192758
ssS'MURRAY JULIA H'
p1084
(dp1085
g3
I2192
sg4
g5
sg6
I57580
sg7
I00
sg8
g5
sg9
S'julia.murray@enron.com'
p1086
sg11
I125000
sg12
g5
sg13
I395
sg14
g5
sg15
I45
sg16
I330
sg17
g5
sg18
g19
(g20
(I0
tp1087
g22
tp1088
Rp1089
(I1
(I1
tp1090
g29
I00
S'\xdbN\xdfMkF\xda?'
p1091
tp1092
bsg34
I400000
sg35
I597461
sg36
I11
sg37
I2
sg38
I196983
sg39
I229284
sg40
I812194
sg41
I400478
ssS'GARLAND C KEVIN'
p1093
(dp1094
g3
I209
sg4
g5
sg6
I48405
sg7
I00
sg8
g5
sg9
S'kevin.garland@enron.com'
p1095
sg11
I375304
sg12
g5
sg13
I178
sg14
g5
sg15
I44
sg16
I60814
sg17
g5
sg18
g19
(g20
(I0
tp1096
g22
tp1097
Rp1098
(I1
(I1
tp1099
g29
I00
S'D,:\xec\xb0\xd3\xdc?'
p1100
tp1101
bsg34
I850000
sg35
I896153
sg36
I10
sg37
I27
sg38
I259907
sg39
I231946
sg40
I1566469
sg41
I636246
ssS'DODSON KEITH'
p1102
(dp1103
g3
I176
sg4
g5
sg6
I28164
sg7
I00
sg8
g5
sg9
S'keith.dodson@enron.com'
p1104
sg11
g5
sg12
g5
sg13
I114
sg14
g5
sg15
I14
sg16
I774
sg17
g5
sg18
g19
(g20
(I0
tp1105
g22
tp1106
Rp1107
(I1
(I1
tp1108
g29
I00
S'\x00\x00\x00\x00\x00\x00\x00\x00'
p1109
tp1110
bsg34
I70000
sg35
g5
sg36
I10
sg37
I3
sg38
g5
sg39
I221003
sg40
I319941
sg41
g5
ssS'YEAGER F SCOTT'
p1111
(dp1112
g3
g5
sg4
g5
sg6
I53947
sg7
I01
sg8
g5
sg9
S'scott.yeager@enron.com'
p1113
sg11
g5
sg12
g5
sg13
g5
sg14
g5
sg15
g5
sg16
I147950
sg17
g5
sg18
g19
(g20
(I0
tp1114
g22
tp1115
Rp1116
(I1
(I1
tp1117
g29
I00
S'KQ1\x8fo\xc9\xe8?'
p1118
tp1119
bsg34
g5
sg35
I11884758
sg36
g5
sg37
g5
sg38
I3576206
sg39
I158403
sg40
I360300
sg41
I8308552
ssS'HIRKO JOSEPH'
p1120
(dp1121
g3
g5
sg4
I10259
sg6
I77978
sg7
I01
sg8
g5
sg9
S'joe.hirko@enron.com'
p1122
sg11
g5
sg12
g5
sg13
g5
sg14
g5
sg15
g5
sg16
I2856
sg17
g5
sg18
g19
(g20
(I0
tp1123
g22
tp1124
Rp1125
(I1
(I1
tp1126
g29
I00
S'\x0e\r\x88,\x0c\x03\xf5?'
p1127
tp1128
bsg34
g5
sg35
I30766064
sg36
g5
sg37
g5
sg38
g5
sg39
g5
sg40
I91093
sg41
I30766064
ssS'DIETRICH JANET R'
p1129
(dp1130
g3
I2572
sg4
g5
sg6
I3475
sg7
I00
sg8
g5
sg9
S'janet.dietrich@enron.com'
p1131
sg11
I556416
sg12
g5
sg13
I1902
sg14
g5
sg15
I63
sg16
I473
sg17
g5
sg18
g19
(g20
(I0
tp1132
g22
tp1133
Rp1134
(I1
(I1
tp1135
g29
I00
S'\x95\x82\xaa"\xd6<\xe1?'
p1136
tp1137
bsg34
I600000
sg35
I1865087
sg36
I305
sg37
I14
sg38
I315068
sg39
I250100
sg40
I1410464
sg41
I1550019
ssS'DERRICK JR. JAMES V'
p1138
(dp1139
g3
I2181
sg4
g5
sg6
I51124
sg7
I00
sg8
I-1284000
sg9
S'james.derrick@enron.com'
p1140
sg11
I484000
sg12
I-1787380
sg13
I1401
sg14
g5
sg15
I909
sg16
I7482
sg17
g5
sg18
g19
(g20
(I0
tp1141
g22
tp1142
Rp1143
(I1
(I1
tp1144
g29
I00
S'\x9a\xed\x10\xc7\x1cE\xe2?'
p1145
tp1146
bsg34
I800000
sg35
I8831913
sg36
I64
sg37
I20
sg38
I1787380
sg39
I492375
sg40
I550981
sg41
I8831913
ssS'FREVERT MARK A'
p1147
(dp1148
g3
I3275
sg4
I6426990
sg6
I86987
sg7
I00
sg8
I-3367011
sg9
S'mark.frevert@enron.com'
p1149
sg11
I1617011
sg12
g5
sg13
I2979
sg14
I2000000
sg15
I21
sg16
I7427621
sg17
g5
sg18
g19
(g20
(I0
tp1150
g22
tp1151
Rp1152
(I1
(I1
tp1153
g29
I00
S'Noq\x80z\x85\xdd?'
p1154
tp1155
bsg34
I2000000
sg35
I14622185
sg36
I242
sg37
I6
sg38
I4188667
sg39
I1060932
sg40
I17252530
sg41
I10433518
ssS'PAI LOU L'
p1156
(dp1157
g3
g5
sg4
g5
sg6
I32047
sg7
I00
sg8
g5
sg9
S'lou.pai@enron.com'
p1158
sg11
g5
sg12
g5
sg13
g5
sg14
g5
sg15
g5
sg16
I1829457
sg17
g5
sg18
g19
(g20
(I0
tp1159
g22
tp1160
Rp1161
(I1
(I1
tp1162
g29
I00
S'um \xc0d\xd8\xed?'
p1163
tp1164
bsg34
I1000000
sg35
I23817930
sg36
g5
sg37
g5
sg38
I8453763
sg39
I261879
sg40
I3123383
sg41
I15364167
ssS'HAYSLETT RODERICK J'
p1165
(dp1166
g3
I2649
sg4
g5
sg6
g5
sg7
I00
sg8
g5
sg9
S'rod.hayslett@enron.com'
p1167
sg11
g5
sg12
g5
sg13
I571
sg14
g5
sg15
I1061
sg16
g5
sg17
g5
sg18
g19
(g20
(I0
tp1168
g22
tp1169
Rp1170
(I1
(I1
tp1171
g29
I00
S'\x00\x00\x00\x00\x00\x00\x00\x00'
p1172
tp1173
bsg34
g5
sg35
I346663
sg36
I35
sg37
I38
sg38
I346663
sg39
g5
sg40
g5
sg41
g5
ssS'BAY FRANKLIN R'
p1174
(dp1175
g3
g5
sg4
I260455
sg6
I129142
sg7
I00
sg8
I-201641
sg9
S'frank.bay@enron.com'
p1176
sg11
g5
sg12
I-82782
sg13
g5
sg14
g5
sg15
g5
sg16
I69
sg17
g5
sg18
g19
(g20
(I0
tp1177
g22
tp1178
Rp1179
(I1
(I1
tp1180
g29
I00
S'\x00\x00\x00\x00\x00\x00\x00\x00'
p1181
tp1182
bsg34
I400000
sg35
I63014
sg36
g5
sg37
g5
sg38
I145796
sg39
I239671
sg40
I827696
sg41
g5
ssS'MCCARTY DANNY J'
p1183
(dp1184
g3
I1433
sg4
g5
sg6
g5
sg7
I00
sg8
g5
sg9
S'danny.mccarty@enron.com'
p1185
sg11
g5
sg12
g5
sg13
I508
sg14
g5
sg15
I215
sg16
g5
sg17
g5
sg18
g19
(g20
(I0
tp1186
g22
tp1187
Rp1188
(I1
(I1
tp1189
g29
I00
S'\xec\x92wL\xef\x13\xdd?'
p1190
tp1191
bsg34
g5
sg35
I758931
sg36
I25
sg37
I2
sg38
I94556
sg39
g5
sg40
g5
sg41
I664375
ssS'FUGH JOHN L'
p1192
(dp1193
g3
g5
sg4
I50591
sg6
g5
sg7
I00
sg8
g5
sg9
g5
sg11
g5
sg12
g5
sg13
g5
sg14
g5
sg15
g5
sg16
g5
sg17
g5
sg18
g19
(g20
(I0
tp1194
g22
tp1195
Rp1196
(I1
(I1
tp1197
g29
I00
S'\xb1dY\xf5\xa5L\xd6?'
p1198
tp1199
bsg34
g5
sg35
I176378
sg36
g5
sg37
g5
sg38
g5
sg39
g5
sg40
I50591
sg41
I176378
ssS'SCRIMSHAW MATTHEW'
p1200
(dp1201
g3
g5
sg4
g5
sg6
g5
sg7
I00
sg8
g5
sg9
S'matthew.scrimshaw@enron.com'
p1202
sg11
g5
sg12
g5
sg13
g5
sg14
g5
sg15
g5
sg16
g5
sg17
g5
sg18
g19
(g20
(I0
tp1203
g22
tp1204
Rp1205
(I1
(I1
tp1206
g29
I00
S'\xac\x05\xc6\xefe\xde\xdd?'
p1207
tp1208
bsg34
g5
sg35
I759557
sg36
g5
sg37
g5
sg38
g5
sg39
g5
sg40
g5
sg41
I759557
ssS'KOENIG MARK E'
p1209
(dp1210
g3
I2374
sg4
g5
sg6
I127017
sg7
I01
sg8
g5
sg9
S'mark.koenig@enron.com'
p1211
sg11
I300000
sg12
g5
sg13
I2271
sg14
g5
sg15
I61
sg16
I150458
sg17
g5
sg18
g19
(g20
(I0
tp1212
g22
tp1213
Rp1214
(I1
(I1
tp1215
g29
I00
S':\x9a\xcc\xfdc$\xdd?'
p1216
tp1217
bsg34
I700000
sg35
I1920055
sg36
I53
sg37
I15
sg38
I1248318
sg39
I309946
sg40
I1587421
sg41
I671737
ssS'SAVAGE FRANK'
p1218
(dp1219
g3
g5
sg4
g5
sg6
g5
sg7
I00
sg8
I-121284
sg9
g5
sg11
g5
sg12
g5
sg13
g5
sg14
g5
sg15
g5
sg16
g5
sg17
I125034
sg18
g19
(g20
(I0
tp1220
g22
tp1221
Rp1222
(I1
(I1
tp1223
g29
I00
S'\x00\x00\x00\x00\x00\x00\x00\x00'
p1224
tp1225
bsg34
g5
sg35
g5
sg36
g5
sg37
g5
sg38
g5
sg39
g5
sg40
I3750
sg41
g5
ssS'IZZO LAWRENCE L'
p1226
(dp1227
g3
I496
sg4
g5
sg6
I28093
sg7
I00
sg8
g5
sg9
S'larry.izzo@enron.com'
p1228
sg11
I312500
sg12
g5
sg13
I437
sg14
g5
sg15
I19
sg16
I1553729
sg17
g5
sg18
g19
(g20
(I0
tp1229
g22
tp1230
Rp1231
(I1
(I1
tp1232
g29
I00
S'y`\\\xc0ur\xe2?'
p1233
tp1234
bsg34
g5
sg35
I5819980
sg36
I28
sg37
I5
sg38
I3654808
sg39
I85274
sg40
I1979596
sg41
I2165172
ssS'TILNEY ELIZABETH A'
p1235
(dp1236
g3
I460
sg4
g5
sg6
g5
sg7
I00
sg8
I-575000
sg9
S'elizabeth.tilney@enron.com'
p1237
sg11
I275000
sg12
g5
sg13
I379
sg14
g5
sg15
I19
sg16
I152055
sg17
g5
sg18
g19
(g20
(I0
tp1238
g22
tp1239
Rp1240
(I1
(I1
tp1241
g29
I00
S'\x8eZ\xe9\xcf\x1a\x9d\xd8?'
p1242
tp1243
bsg34
I300000
sg35
I1168042
sg36
I10
sg37
I11
sg38
I576792
sg39
I247338
sg40
I399393
sg41
I591250
ssS'MARTIN AMANDA K'
p1244
(dp1245
g3
I1522
sg4
I85430
sg6
I8211
sg7
I00
sg8
g5
sg9
S'a..martin@enron.com'
p1246
sg11
I5145434
sg12
g5
sg13
I477
sg14
g5
sg15
I230
sg16
I2818454
sg17
g5
sg18
g19
(g20
(I0
tp1247
g22
tp1248
Rp1249
(I1
(I1
tp1250
g29
I00
S'\x8e0\xfe\xe5\x89G\xe2?'
p1251
tp1252
bsg34
g5
sg35
I2070306
sg36
I8
sg37
I0
sg38
g5
sg39
I349487
sg40
I8407016
sg41
I2070306
ssS'BUY RICHARD B'
p1253
(dp1254
g3
I3523
sg4
I649584
sg6
g5
sg7
I00
sg8
I-694862
sg9
S'rick.buy@enron.com'
p1255
sg11
I769862
sg12
g5
sg13
I2333
sg14
g5
sg15
I1053
sg16
I400572
sg17
g5
sg18
g19
(g20
(I0
tp1256
g22
tp1257
Rp1258
(I1
(I1
tp1259
g29
I00
S'M\xcc\xcb\x80x\xff\xdf?'
p1260
tp1261
bsg34
I900000
sg35
I3444470
sg36
I156
sg37
I71
sg38
I901657
sg39
I330546
sg40
I2355702
sg41
I2542813
ssS'GRAMM WENDY L'
p1262
(dp1263
g3
g5
sg4
g5
sg6
g5
sg7
I00
sg8
g5
sg9
g5
sg11
g5
sg12
g5
sg13
g5
sg14
g5
sg15
g5
sg16
g5
sg17
I119292
sg18
g19
(g20
(I0
tp1264
g22
tp1265
Rp1266
(I1
(I1
tp1267
g29
I00
S'\x00\x00\x00\x00\x00\x00\x00\x00'
p1268
tp1269
bsg34
g5
sg35
g5
sg36
g5
sg37
g5
sg38
g5
sg39
g5
sg40
I119292
sg41
g5
ssS'CAUSEY RICHARD A'
p1270
(dp1271
g3
I1892
sg4
g5
sg6
I30674
sg7
I01
sg8
I-235000
sg9
S'richard.causey@enron.com'
p1272
sg11
I350000
sg12
g5
sg13
I1585
sg14
g5
sg15
I49
sg16
I307895
sg17
g5
sg18
g19
(g20
(I0
tp1273
g22
tp1274
Rp1275
(I1
(I1
tp1276
g29
I00
S'\x00\x00\x00\x00\x00\x00\x00\x00'
p1277
tp1278
bsg34
I1000000
sg35
I2502063
sg36
I58
sg37
I12
sg38
I2502063
sg39
I415189
sg40
I1868758
sg41
g5
ssS'TAYLOR MITCHELL S'
p1279
(dp1280
g3
I533
sg4
I227449
sg6
g5
sg7
I00
sg8
g5
sg9
S'mitchell.taylor@enron.com'
p1281
sg11
g5
sg12
g5
sg13
I300
sg14
g5
sg15
I29
sg16
g5
sg17
g5
sg18
g19
(g20
(I0
tp1282
g22
tp1283
Rp1284
(I1
(I1
tp1285
g29
I00
S'\xd9\t)H\xe8\xf7\xe3?'
p1286
tp1287
bsg34
I600000
sg35
I3745048
sg36
I0
sg37
I0
sg38
I563798
sg39
I265214
sg40
I1092663
sg41
I3181250
ssS'DONAHUE JR JEFFREY M'
p1288
(dp1289
g3
I865
sg4
g5
sg6
I96268
sg7
I00
sg8
I-300000
sg9
S'jeff.donahue@enron.com'
p1290
sg11
g5
sg12
g5
sg13
I772
sg14
g5
sg15
I22
sg16
I891
sg17
g5
sg18
g19
(g20
(I0
tp1291
g22
tp1292
Rp1293
(I1
(I1
tp1294
g29
I00
S'q\xde%BY\xda\xdb?'
p1295
tp1296
bsg34
I800000
sg35
I1080988
sg36
I188
sg37
I11
sg38
I315068
sg39
I278601
sg40
I875760
sg41
I765920
ssS'GLISAN JR BEN F'
p1297
(dp1298
g3
I873
sg4
g5
sg6
I125978
sg7
I01
sg8
g5
sg9
S'ben.glisan@enron.com'
p1299
sg11
I71023
sg12
g5
sg13
I874
sg14
g5
sg15
I16
sg16
I200308
sg17
g5
sg18
g19
(g20
(I0
tp1300
g22
tp1301
Rp1302
(I1
(I1
tp1303
g29
I00
S'\xdc\x7f\xbc\xd6\x9f\x10\xda?'
p1304
tp1305
bsg34
I600000
sg35
I778546
sg36
I52
sg37
I6
sg38
I393818
sg39
I274975
sg40
I1272284
sg41
I384728
ss.